ARM GAS  C:\Users\satomin\AppData\Local\Temp\ccpt0mD2.s 			page 1


   1              		.syntax unified
   2              		.cpu cortex-m3
   3              		.fpu softvfp
   4              		.eabi_attribute 20, 1
   5              		.eabi_attribute 21, 1
   6              		.eabi_attribute 23, 3
   7              		.eabi_attribute 24, 1
   8              		.eabi_attribute 25, 1
   9              		.eabi_attribute 26, 1
  10              		.eabi_attribute 30, 1
  11              		.eabi_attribute 34, 1
  12              		.eabi_attribute 18, 4
  13              		.thumb
  14              		.file	"I2Cdev.c"
  15              		.text
  16              	.Ltext0:
  17              		.cfi_sections	.debug_frame
  18              		.section	.text.I2Cdev_readBytes,"ax",%progbits
  19              		.align	2
  20              		.global	I2Cdev_readBytes
  21              		.thumb
  22              		.thumb_func
  23              		.type	I2Cdev_readBytes, %function
  24              	I2Cdev_readBytes:
  25              	.LFB63:
  26              		.file 1 ".\\I2Cdev\\I2Cdev.c"
   1:.\I2Cdev/I2Cdev.c **** // I2Cdev library collection - Main I2C device class
   2:.\I2Cdev/I2Cdev.c **** // Abstracts bit and byte I2C R/W functions into a convenient class
   3:.\I2Cdev/I2Cdev.c **** // 6/9/2012 by Jeff Rowberg <jeff@rowberg.net>
   4:.\I2Cdev/I2Cdev.c **** // 11/28/2014 by Marton Sebok <sebokmarton@gmail.com>
   5:.\I2Cdev/I2Cdev.c **** //
   6:.\I2Cdev/I2Cdev.c **** // Changelog:
   7:.\I2Cdev/I2Cdev.c **** //     2014-11-28 - ported to PIC18 peripheral library from Arduino code
   8:.\I2Cdev/I2Cdev.c **** 
   9:.\I2Cdev/I2Cdev.c **** /* ============================================
  10:.\I2Cdev/I2Cdev.c **** I2Cdev device library code is placed under the MIT license
  11:.\I2Cdev/I2Cdev.c **** Copyright (c) 2013 Jeff Rowberg
  12:.\I2Cdev/I2Cdev.c **** Copyright (c) 2014 Marton Sebok
  13:.\I2Cdev/I2Cdev.c **** 
  14:.\I2Cdev/I2Cdev.c **** Permission is hereby granted, free of charge, to any person obtaining a copy
  15:.\I2Cdev/I2Cdev.c **** of this software and associated documentation files (the "Software"), to deal
  16:.\I2Cdev/I2Cdev.c **** in the Software without restriction, including without limitation the rights
  17:.\I2Cdev/I2Cdev.c **** to use, copy, modify, merge, publish, distribute, sublicense, and/or sell
  18:.\I2Cdev/I2Cdev.c **** copies of the Software, and to permit persons to whom the Software is
  19:.\I2Cdev/I2Cdev.c **** furnished to do so, subject to the following conditions:
  20:.\I2Cdev/I2Cdev.c **** 
  21:.\I2Cdev/I2Cdev.c **** The above copyright notice and this permission notice shall be included in
  22:.\I2Cdev/I2Cdev.c **** all copies or substantial portions of the Software.
  23:.\I2Cdev/I2Cdev.c **** 
  24:.\I2Cdev/I2Cdev.c **** THE SOFTWARE IS PROVIDED "AS IS", WITHOUT WARRANTY OF ANY KIND, EXPRESS OR
  25:.\I2Cdev/I2Cdev.c **** IMPLIED, INCLUDING BUT NOT LIMITED TO THE WARRANTIES OF MERCHANTABILITY,
  26:.\I2Cdev/I2Cdev.c **** FITNESS FOR A PARTICULAR PURPOSE AND NONINFRINGEMENT. IN NO EVENT SHALL THE
  27:.\I2Cdev/I2Cdev.c **** AUTHORS OR COPYRIGHT HOLDERS BE LIABLE FOR ANY CLAIM, DAMAGES OR OTHER
  28:.\I2Cdev/I2Cdev.c **** LIABILITY, WHETHER IN AN ACTION OF CONTRACT, TORT OR OTHERWISE, ARISING FROM,
  29:.\I2Cdev/I2Cdev.c **** OUT OF OR IN CONNECTION WITH THE SOFTWARE OR THE USE OR OTHER DEALINGS IN
  30:.\I2Cdev/I2Cdev.c **** THE SOFTWARE.
  31:.\I2Cdev/I2Cdev.c **** ===============================================
ARM GAS  C:\Users\satomin\AppData\Local\Temp\ccpt0mD2.s 			page 2


  32:.\I2Cdev/I2Cdev.c **** */
  33:.\I2Cdev/I2Cdev.c **** 
  34:.\I2Cdev/I2Cdev.c **** #include "I2Cdev.h"
  35:.\I2Cdev/I2Cdev.c **** 
  36:.\I2Cdev/I2Cdev.c **** /** Read multiple bytes from an 8-bit device register.
  37:.\I2Cdev/I2Cdev.c ****  * @param devAddr I2C slave device address
  38:.\I2Cdev/I2Cdev.c ****  * @param regAddr First register regAddr to read from
  39:.\I2Cdev/I2Cdev.c ****  * @param length Number of bytes to read
  40:.\I2Cdev/I2Cdev.c ****  * @param data Buffer to store read data in
  41:.\I2Cdev/I2Cdev.c ****  * @return Number of bytes read (-1 indicates failure)
  42:.\I2Cdev/I2Cdev.c ****  */
  43:.\I2Cdev/I2Cdev.c **** int8_t I2Cdev_readBytes(uint8_t devAddr, uint8_t regAddr, uint8_t length, uint8_t *data) {
  27              		.loc 1 43 0
  28              		.cfi_startproc
  29              		@ args = 0, pretend = 0, frame = 8
  30              		@ frame_needed = 0, uses_anonymous_args = 0
  31              	.LVL0:
  32 0000 70B5     		push	{r4, r5, r6, lr}
  33              		.cfi_def_cfa_offset 16
  34              		.cfi_offset 4, -16
  35              		.cfi_offset 5, -12
  36              		.cfi_offset 6, -8
  37              		.cfi_offset 14, -4
  38 0002 82B0     		sub	sp, sp, #8
  39              		.cfi_def_cfa_offset 24
  40 0004 0646     		mov	r6, r0
  41 0006 1446     		mov	r4, r2
  42 0008 1D46     		mov	r5, r3
  43 000a 02AB     		add	r3, sp, #8
  44              	.LVL1:
  45 000c 03F8011D 		strb	r1, [r3, #-1]!
  44:.\I2Cdev/I2Cdev.c ****     /*
  45:.\I2Cdev/I2Cdev.c ****     int8_t count = 0;
  46:.\I2Cdev/I2Cdev.c **** 
  47:.\I2Cdev/I2Cdev.c ****     // S
  48:.\I2Cdev/I2Cdev.c ****     IdleI2C();
  49:.\I2Cdev/I2Cdev.c ****     StartI2C();
  50:.\I2Cdev/I2Cdev.c **** 
  51:.\I2Cdev/I2Cdev.c ****     // Device write address
  52:.\I2Cdev/I2Cdev.c ****     IdleI2C();
  53:.\I2Cdev/I2Cdev.c ****     WriteI2C(devAddr << 1 | 0x00);
  54:.\I2Cdev/I2Cdev.c **** 
  55:.\I2Cdev/I2Cdev.c ****     // Register address
  56:.\I2Cdev/I2Cdev.c ****     IdleI2C();
  57:.\I2Cdev/I2Cdev.c ****     WriteI2C(regAddr);
  58:.\I2Cdev/I2Cdev.c **** 
  59:.\I2Cdev/I2Cdev.c ****     // R
  60:.\I2Cdev/I2Cdev.c ****     IdleI2C();
  61:.\I2Cdev/I2Cdev.c ****     RestartI2C();
  62:.\I2Cdev/I2Cdev.c **** 
  63:.\I2Cdev/I2Cdev.c ****     // Device read address
  64:.\I2Cdev/I2Cdev.c ****     IdleI2C();
  65:.\I2Cdev/I2Cdev.c ****     WriteI2C(devAddr << 1 | 0x01);
  66:.\I2Cdev/I2Cdev.c **** 
  67:.\I2Cdev/I2Cdev.c ****     for (count = 0; count < length; count++) {
  68:.\I2Cdev/I2Cdev.c ****         // Data byte
  69:.\I2Cdev/I2Cdev.c ****         IdleI2C();
ARM GAS  C:\Users\satomin\AppData\Local\Temp\ccpt0mD2.s 			page 3


  70:.\I2Cdev/I2Cdev.c ****         data[count] = ReadI2C();
  71:.\I2Cdev/I2Cdev.c **** 
  72:.\I2Cdev/I2Cdev.c ****         if (count == length - 1) {
  73:.\I2Cdev/I2Cdev.c ****             // NACK
  74:.\I2Cdev/I2Cdev.c ****             IdleI2C();
  75:.\I2Cdev/I2Cdev.c ****             NotAckI2C();
  76:.\I2Cdev/I2Cdev.c ****         } else {
  77:.\I2Cdev/I2Cdev.c ****             // ACK
  78:.\I2Cdev/I2Cdev.c ****             IdleI2C();
  79:.\I2Cdev/I2Cdev.c ****             AckI2C();
  80:.\I2Cdev/I2Cdev.c ****         }
  81:.\I2Cdev/I2Cdev.c ****     }
  82:.\I2Cdev/I2Cdev.c **** 
  83:.\I2Cdev/I2Cdev.c ****     // P
  84:.\I2Cdev/I2Cdev.c ****     IdleI2C();
  85:.\I2Cdev/I2Cdev.c ****     StopI2C();
  86:.\I2Cdev/I2Cdev.c **** 
  87:.\I2Cdev/I2Cdev.c ****     return count;
  88:.\I2Cdev/I2Cdev.c ****     */
  89:.\I2Cdev/I2Cdev.c ****     I2C_MasterWriteBuf(devAddr,&regAddr, 1, I2C_MODE_NO_STOP);
  46              		.loc 1 89 0
  47 0010 1946     		mov	r1, r3
  48              	.LVL2:
  49 0012 0122     		movs	r2, #1
  50              	.LVL3:
  51 0014 0223     		movs	r3, #2
  52 0016 FFF7FEFF 		bl	I2C_MasterWriteBuf
  53              	.LVL4:
  54              	.L2:
  90:.\I2Cdev/I2Cdev.c ****     while((I2C_MSTAT_WR_CMPLT & I2C_MasterStatus()) == 0);
  55              		.loc 1 90 0 discriminator 1
  56 001a FFF7FEFF 		bl	I2C_MasterStatus
  57              	.LVL5:
  58 001e 10F0020F 		tst	r0, #2
  59 0022 FAD0     		beq	.L2
  91:.\I2Cdev/I2Cdev.c ****     I2C_MasterReadBuf(devAddr, data, length, I2C_MODE_REPEAT_START);
  60              		.loc 1 91 0
  61 0024 3046     		mov	r0, r6
  62 0026 2946     		mov	r1, r5
  63 0028 2246     		mov	r2, r4
  64 002a 0123     		movs	r3, #1
  65 002c FFF7FEFF 		bl	I2C_MasterReadBuf
  66              	.LVL6:
  67              	.L3:
  92:.\I2Cdev/I2Cdev.c **** 	while((I2C_MSTAT_RD_CMPLT & I2C_MasterStatus()) == 0);
  68              		.loc 1 92 0 discriminator 1
  69 0030 FFF7FEFF 		bl	I2C_MasterStatus
  70              	.LVL7:
  71 0034 10F0010F 		tst	r0, #1
  72 0038 FAD0     		beq	.L3
  93:.\I2Cdev/I2Cdev.c ****     return length;
  94:.\I2Cdev/I2Cdev.c **** }
  73              		.loc 1 94 0
  74 003a 60B2     		sxtb	r0, r4
  75 003c 02B0     		add	sp, sp, #8
  76              		.cfi_def_cfa_offset 16
  77              	.LVL8:
ARM GAS  C:\Users\satomin\AppData\Local\Temp\ccpt0mD2.s 			page 4


  78              		@ sp needed
  79 003e 70BD     		pop	{r4, r5, r6, pc}
  80              		.cfi_endproc
  81              	.LFE63:
  82              		.size	I2Cdev_readBytes, .-I2Cdev_readBytes
  83              		.section	.text.I2Cdev_readByte,"ax",%progbits
  84              		.align	2
  85              		.global	I2Cdev_readByte
  86              		.thumb
  87              		.thumb_func
  88              		.type	I2Cdev_readByte, %function
  89              	I2Cdev_readByte:
  90              	.LFB64:
  95:.\I2Cdev/I2Cdev.c **** 
  96:.\I2Cdev/I2Cdev.c **** /** Read single byte from an 8-bit device register.
  97:.\I2Cdev/I2Cdev.c ****  * @param devAddr I2C slave device address
  98:.\I2Cdev/I2Cdev.c ****  * @param regAddr Register regAddr to read from
  99:.\I2Cdev/I2Cdev.c ****  * @param data Container for byte value read from device
 100:.\I2Cdev/I2Cdev.c ****  * @return Status of read operation (true = success)
 101:.\I2Cdev/I2Cdev.c ****  */
 102:.\I2Cdev/I2Cdev.c **** int8_t I2Cdev_readByte(uint8_t devAddr, uint8_t regAddr, uint8_t *data) {
  91              		.loc 1 102 0
  92              		.cfi_startproc
  93              		@ args = 0, pretend = 0, frame = 0
  94              		@ frame_needed = 0, uses_anonymous_args = 0
  95              	.LVL9:
  96 0000 08B5     		push	{r3, lr}
  97              		.cfi_def_cfa_offset 8
  98              		.cfi_offset 3, -8
  99              		.cfi_offset 14, -4
 100 0002 1346     		mov	r3, r2
 103:.\I2Cdev/I2Cdev.c ****     return I2Cdev_readBytes(devAddr, regAddr, 1, data);
 101              		.loc 1 103 0
 102 0004 0122     		movs	r2, #1
 103              	.LVL10:
 104 0006 FFF7FEFF 		bl	I2Cdev_readBytes
 105              	.LVL11:
 104:.\I2Cdev/I2Cdev.c **** }
 106              		.loc 1 104 0
 107 000a 08BD     		pop	{r3, pc}
 108              		.cfi_endproc
 109              	.LFE64:
 110              		.size	I2Cdev_readByte, .-I2Cdev_readByte
 111              		.section	.text.I2Cdev_readWords,"ax",%progbits
 112              		.align	2
 113              		.global	I2Cdev_readWords
 114              		.thumb
 115              		.thumb_func
 116              		.type	I2Cdev_readWords, %function
 117              	I2Cdev_readWords:
 118              	.LFB65:
 105:.\I2Cdev/I2Cdev.c **** 
 106:.\I2Cdev/I2Cdev.c **** /** Read multiple words from a 16-bit device register.
 107:.\I2Cdev/I2Cdev.c ****  * @param devAddr I2C slave device address
 108:.\I2Cdev/I2Cdev.c ****  * @param regAddr First register regAddr to read from
 109:.\I2Cdev/I2Cdev.c ****  * @param length Number of words to read
 110:.\I2Cdev/I2Cdev.c ****  * @param data Buffer to store read data in
ARM GAS  C:\Users\satomin\AppData\Local\Temp\ccpt0mD2.s 			page 5


 111:.\I2Cdev/I2Cdev.c ****  * @return Number of words read (-1 indicates failure)
 112:.\I2Cdev/I2Cdev.c ****  */
 113:.\I2Cdev/I2Cdev.c **** int8_t I2Cdev_readWords(uint8_t devAddr, uint8_t regAddr, uint8_t length, uint16_t *data) {
 119              		.loc 1 113 0
 120              		.cfi_startproc
 121              		@ args = 0, pretend = 0, frame = 8
 122              		@ frame_needed = 1, uses_anonymous_args = 0
 123              	.LVL12:
 124 0000 2DE9F041 		push	{r4, r5, r6, r7, r8, lr}
 125              		.cfi_def_cfa_offset 24
 126              		.cfi_offset 4, -24
 127              		.cfi_offset 5, -20
 128              		.cfi_offset 6, -16
 129              		.cfi_offset 7, -12
 130              		.cfi_offset 8, -8
 131              		.cfi_offset 14, -4
 132 0004 82B0     		sub	sp, sp, #8
 133              		.cfi_def_cfa_offset 32
 134 0006 00AF     		add	r7, sp, #0
 135              		.cfi_def_cfa_register 7
 136 0008 8046     		mov	r8, r0
 137 000a 1546     		mov	r5, r2
 138 000c 1E46     		mov	r6, r3
 139 000e 07F10802 		add	r2, r7, #8
 140              	.LVL13:
 141 0012 02F8011D 		strb	r1, [r2, #-1]!
 114:.\I2Cdev/I2Cdev.c ****     uint8_t array[length * 2];
 142              		.loc 1 114 0
 143 0016 6B00     		lsls	r3, r5, #1
 144              	.LVL14:
 145 0018 0733     		adds	r3, r3, #7
 146              	.LVL15:
 147 001a 23F00703 		bic	r3, r3, #7
 148              	.LVL16:
 149 001e ADEB030D 		sub	sp, sp, r3
 150 0022 6C46     		mov	r4, sp
 151              	.LVL17:
 115:.\I2Cdev/I2Cdev.c ****     /*
 116:.\I2Cdev/I2Cdev.c ****     int8_t count = 0;
 117:.\I2Cdev/I2Cdev.c **** 
 118:.\I2Cdev/I2Cdev.c ****     // S
 119:.\I2Cdev/I2Cdev.c ****     IdleI2C();
 120:.\I2Cdev/I2Cdev.c ****     StartI2C();
 121:.\I2Cdev/I2Cdev.c **** 
 122:.\I2Cdev/I2Cdev.c ****     // Device write address
 123:.\I2Cdev/I2Cdev.c ****     IdleI2C();
 124:.\I2Cdev/I2Cdev.c ****     WriteI2C(devAddr << 1 | 0x00);
 125:.\I2Cdev/I2Cdev.c **** 
 126:.\I2Cdev/I2Cdev.c ****     // Register address
 127:.\I2Cdev/I2Cdev.c ****     IdleI2C();
 128:.\I2Cdev/I2Cdev.c ****     WriteI2C(regAddr);
 129:.\I2Cdev/I2Cdev.c **** 
 130:.\I2Cdev/I2Cdev.c ****     // R
 131:.\I2Cdev/I2Cdev.c ****     IdleI2C();
 132:.\I2Cdev/I2Cdev.c ****     RestartI2C();
 133:.\I2Cdev/I2Cdev.c **** 
 134:.\I2Cdev/I2Cdev.c ****     // Device read address
ARM GAS  C:\Users\satomin\AppData\Local\Temp\ccpt0mD2.s 			page 6


 135:.\I2Cdev/I2Cdev.c ****     IdleI2C();
 136:.\I2Cdev/I2Cdev.c ****     WriteI2C(devAddr << 1 | 0x01);
 137:.\I2Cdev/I2Cdev.c **** 
 138:.\I2Cdev/I2Cdev.c ****     for (count = 0; count < length; count++) {
 139:.\I2Cdev/I2Cdev.c ****         // First byte is bits 15-8 (MSb=15)
 140:.\I2Cdev/I2Cdev.c ****         IdleI2C();
 141:.\I2Cdev/I2Cdev.c ****         data[count] = ReadI2C() << 8;
 142:.\I2Cdev/I2Cdev.c **** 
 143:.\I2Cdev/I2Cdev.c ****         // NACK
 144:.\I2Cdev/I2Cdev.c ****         IdleI2C();
 145:.\I2Cdev/I2Cdev.c ****         NotAckI2C();
 146:.\I2Cdev/I2Cdev.c **** 
 147:.\I2Cdev/I2Cdev.c ****         // Second byte is bits 7-0 (LSb=0)
 148:.\I2Cdev/I2Cdev.c ****         IdleI2C();
 149:.\I2Cdev/I2Cdev.c ****         data[count] |= ReadI2C();
 150:.\I2Cdev/I2Cdev.c **** 
 151:.\I2Cdev/I2Cdev.c ****         if (count == length - 1) {
 152:.\I2Cdev/I2Cdev.c ****             // NACK
 153:.\I2Cdev/I2Cdev.c ****             IdleI2C();
 154:.\I2Cdev/I2Cdev.c ****             NotAckI2C();
 155:.\I2Cdev/I2Cdev.c ****         } else {
 156:.\I2Cdev/I2Cdev.c ****             // ACK
 157:.\I2Cdev/I2Cdev.c ****             IdleI2C();
 158:.\I2Cdev/I2Cdev.c ****             AckI2C();
 159:.\I2Cdev/I2Cdev.c ****         }
 160:.\I2Cdev/I2Cdev.c ****     }
 161:.\I2Cdev/I2Cdev.c **** 
 162:.\I2Cdev/I2Cdev.c ****     // P
 163:.\I2Cdev/I2Cdev.c ****     IdleI2C();
 164:.\I2Cdev/I2Cdev.c ****     StopI2C();
 165:.\I2Cdev/I2Cdev.c **** 
 166:.\I2Cdev/I2Cdev.c ****     return count;
 167:.\I2Cdev/I2Cdev.c ****     */
 168:.\I2Cdev/I2Cdev.c ****     I2C_MasterWriteBuf(devAddr,&regAddr, 1, I2C_MODE_NO_STOP);
 152              		.loc 1 168 0
 153 0024 1146     		mov	r1, r2
 154              	.LVL18:
 155 0026 0122     		movs	r2, #1
 156 0028 0223     		movs	r3, #2
 157 002a FFF7FEFF 		bl	I2C_MasterWriteBuf
 158              	.LVL19:
 159              	.L8:
 169:.\I2Cdev/I2Cdev.c ****     while((I2C_MSTAT_WR_CMPLT & I2C_MasterStatus()) == 0);
 160              		.loc 1 169 0 discriminator 1
 161 002e FFF7FEFF 		bl	I2C_MasterStatus
 162              	.LVL20:
 163 0032 10F0020F 		tst	r0, #2
 164 0036 FAD0     		beq	.L8
 170:.\I2Cdev/I2Cdev.c ****     I2C_MasterReadBuf(devAddr, array, length*2, I2C_MODE_REPEAT_START);
 165              		.loc 1 170 0
 166 0038 6A00     		lsls	r2, r5, #1
 167 003a 4046     		mov	r0, r8
 168 003c 2146     		mov	r1, r4
 169 003e 02F0FE02 		and	r2, r2, #254
 170 0042 0123     		movs	r3, #1
 171 0044 FFF7FEFF 		bl	I2C_MasterReadBuf
 172              	.LVL21:
ARM GAS  C:\Users\satomin\AppData\Local\Temp\ccpt0mD2.s 			page 7


 173              	.L9:
 171:.\I2Cdev/I2Cdev.c **** 	while((I2C_MSTAT_RD_CMPLT & I2C_MasterStatus()) == 0);
 174              		.loc 1 171 0 discriminator 1
 175 0048 FFF7FEFF 		bl	I2C_MasterStatus
 176              	.LVL22:
 177 004c 10F0010F 		tst	r0, #1
 178 0050 FAD0     		beq	.L9
 179 0052 0023     		movs	r3, #0
 180 0054 0AE0     		b	.L10
 181              	.LVL23:
 182              	.L11:
 183              	.LBB2:
 172:.\I2Cdev/I2Cdev.c ****     for(uint8_t i = 0;i < length;i++){
 173:.\I2Cdev/I2Cdev.c ****         *(data+i) = ((array[i*2] << 8) & 0xff00) | (array[i*2+1] & 0xff);
 184              		.loc 1 173 0 discriminator 3
 185 0056 14F81310 		ldrb	r1, [r4, r3, lsl #1]	@ zero_extendqisi2
 186 005a 04EB4302 		add	r2, r4, r3, lsl #1
 187 005e 5278     		ldrb	r2, [r2, #1]	@ zero_extendqisi2
 188 0060 42EA0122 		orr	r2, r2, r1, lsl #8
 189 0064 26F81320 		strh	r2, [r6, r3, lsl #1]	@ movhi
 172:.\I2Cdev/I2Cdev.c ****     for(uint8_t i = 0;i < length;i++){
 190              		.loc 1 172 0 discriminator 3
 191 0068 0133     		adds	r3, r3, #1
 192              	.LVL24:
 193 006a DBB2     		uxtb	r3, r3
 194              	.LVL25:
 195              	.L10:
 172:.\I2Cdev/I2Cdev.c ****     for(uint8_t i = 0;i < length;i++){
 196              		.loc 1 172 0 is_stmt 0 discriminator 1
 197 006c AB42     		cmp	r3, r5
 198 006e F2D3     		bcc	.L11
 199              	.LBE2:
 174:.\I2Cdev/I2Cdev.c ****     }
 175:.\I2Cdev/I2Cdev.c ****     return length;
 176:.\I2Cdev/I2Cdev.c **** }
 200              		.loc 1 176 0 is_stmt 1
 201 0070 68B2     		sxtb	r0, r5
 202 0072 0837     		adds	r7, r7, #8
 203              		.cfi_def_cfa_offset 24
 204              	.LVL26:
 205 0074 BD46     		mov	sp, r7
 206              		.cfi_def_cfa_register 13
 207              		@ sp needed
 208 0076 BDE8F081 		pop	{r4, r5, r6, r7, r8, pc}
 209              		.cfi_endproc
 210              	.LFE65:
 211              		.size	I2Cdev_readWords, .-I2Cdev_readWords
 212 007a 00BF     		.section	.text.I2Cdev_readWord,"ax",%progbits
 213              		.align	2
 214              		.global	I2Cdev_readWord
 215              		.thumb
 216              		.thumb_func
 217              		.type	I2Cdev_readWord, %function
 218              	I2Cdev_readWord:
 219              	.LFB66:
 177:.\I2Cdev/I2Cdev.c **** 
 178:.\I2Cdev/I2Cdev.c **** /** Read single word from a 16-bit device register.
ARM GAS  C:\Users\satomin\AppData\Local\Temp\ccpt0mD2.s 			page 8


 179:.\I2Cdev/I2Cdev.c ****  * @param devAddr I2C slave device address
 180:.\I2Cdev/I2Cdev.c ****  * @param regAddr Register regAddr to read from
 181:.\I2Cdev/I2Cdev.c ****  * @param data Container for word value read from device
 182:.\I2Cdev/I2Cdev.c ****  * @return Status of read operation (true = success)
 183:.\I2Cdev/I2Cdev.c ****  */
 184:.\I2Cdev/I2Cdev.c **** int8_t I2Cdev_readWord(uint8_t devAddr, uint8_t regAddr, uint16_t *data) {
 220              		.loc 1 184 0
 221              		.cfi_startproc
 222              		@ args = 0, pretend = 0, frame = 0
 223              		@ frame_needed = 0, uses_anonymous_args = 0
 224              	.LVL27:
 225 0000 08B5     		push	{r3, lr}
 226              		.cfi_def_cfa_offset 8
 227              		.cfi_offset 3, -8
 228              		.cfi_offset 14, -4
 229 0002 1346     		mov	r3, r2
 185:.\I2Cdev/I2Cdev.c ****     return I2Cdev_readWords(devAddr, regAddr, 1, data);
 230              		.loc 1 185 0
 231 0004 0122     		movs	r2, #1
 232              	.LVL28:
 233 0006 FFF7FEFF 		bl	I2Cdev_readWords
 234              	.LVL29:
 186:.\I2Cdev/I2Cdev.c **** }
 235              		.loc 1 186 0
 236 000a 08BD     		pop	{r3, pc}
 237              		.cfi_endproc
 238              	.LFE66:
 239              		.size	I2Cdev_readWord, .-I2Cdev_readWord
 240              		.section	.text.I2Cdev_readBit,"ax",%progbits
 241              		.align	2
 242              		.global	I2Cdev_readBit
 243              		.thumb
 244              		.thumb_func
 245              		.type	I2Cdev_readBit, %function
 246              	I2Cdev_readBit:
 247              	.LFB67:
 187:.\I2Cdev/I2Cdev.c **** 
 188:.\I2Cdev/I2Cdev.c **** /** Read a single bit from an 8-bit device register.
 189:.\I2Cdev/I2Cdev.c ****  * @param devAddr I2C slave device address
 190:.\I2Cdev/I2Cdev.c ****  * @param regAddr Register regAddr to read from
 191:.\I2Cdev/I2Cdev.c ****  * @param bitNum Bit position to read (0-7)
 192:.\I2Cdev/I2Cdev.c ****  * @param data Container for single bit value
 193:.\I2Cdev/I2Cdev.c ****  * @return Status of read operation (true = success)
 194:.\I2Cdev/I2Cdev.c ****  */
 195:.\I2Cdev/I2Cdev.c **** int8_t I2Cdev_readBit(uint8_t devAddr, uint8_t regAddr, uint8_t bitNum, uint8_t *data) {
 248              		.loc 1 195 0
 249              		.cfi_startproc
 250              		@ args = 0, pretend = 0, frame = 8
 251              		@ frame_needed = 0, uses_anonymous_args = 0
 252              	.LVL30:
 253 0000 30B5     		push	{r4, r5, lr}
 254              		.cfi_def_cfa_offset 12
 255              		.cfi_offset 4, -12
 256              		.cfi_offset 5, -8
 257              		.cfi_offset 14, -4
 258 0002 83B0     		sub	sp, sp, #12
 259              		.cfi_def_cfa_offset 24
ARM GAS  C:\Users\satomin\AppData\Local\Temp\ccpt0mD2.s 			page 9


 260 0004 1546     		mov	r5, r2
 261 0006 1C46     		mov	r4, r3
 196:.\I2Cdev/I2Cdev.c ****     uint8_t b;
 197:.\I2Cdev/I2Cdev.c ****     uint8_t count = I2Cdev_readByte(devAddr, regAddr, &b);
 262              		.loc 1 197 0
 263 0008 0DF10702 		add	r2, sp, #7
 264              	.LVL31:
 265 000c FFF7FEFF 		bl	I2Cdev_readByte
 266              	.LVL32:
 198:.\I2Cdev/I2Cdev.c ****     *data = b & (1 << bitNum);
 267              		.loc 1 198 0
 268 0010 0123     		movs	r3, #1
 269 0012 AB40     		lsls	r3, r3, r5
 270 0014 9DF80720 		ldrb	r2, [sp, #7]	@ zero_extendqisi2
 271 0018 1340     		ands	r3, r3, r2
 272 001a 2370     		strb	r3, [r4]
 199:.\I2Cdev/I2Cdev.c ****     return count;
 200:.\I2Cdev/I2Cdev.c **** }
 273              		.loc 1 200 0
 274 001c 03B0     		add	sp, sp, #12
 275              		.cfi_def_cfa_offset 12
 276              		@ sp needed
 277 001e 30BD     		pop	{r4, r5, pc}
 278              		.cfi_endproc
 279              	.LFE67:
 280              		.size	I2Cdev_readBit, .-I2Cdev_readBit
 281              		.section	.text.I2Cdev_readBitW,"ax",%progbits
 282              		.align	2
 283              		.global	I2Cdev_readBitW
 284              		.thumb
 285              		.thumb_func
 286              		.type	I2Cdev_readBitW, %function
 287              	I2Cdev_readBitW:
 288              	.LFB68:
 201:.\I2Cdev/I2Cdev.c **** 
 202:.\I2Cdev/I2Cdev.c **** /** Read a single bit from a 16-bit device register.
 203:.\I2Cdev/I2Cdev.c ****  * @param devAddr I2C slave device address
 204:.\I2Cdev/I2Cdev.c ****  * @param regAddr Register regAddr to read from
 205:.\I2Cdev/I2Cdev.c ****  * @param bitNum Bit position to read (0-15)
 206:.\I2Cdev/I2Cdev.c ****  * @param data Container for single bit value
 207:.\I2Cdev/I2Cdev.c ****  * @return Status of read operation (true = success)
 208:.\I2Cdev/I2Cdev.c ****  */
 209:.\I2Cdev/I2Cdev.c **** int8_t I2Cdev_readBitW(uint8_t devAddr, uint8_t regAddr, uint8_t bitNum, uint16_t *data) {
 289              		.loc 1 209 0
 290              		.cfi_startproc
 291              		@ args = 0, pretend = 0, frame = 8
 292              		@ frame_needed = 0, uses_anonymous_args = 0
 293              	.LVL33:
 294 0000 30B5     		push	{r4, r5, lr}
 295              		.cfi_def_cfa_offset 12
 296              		.cfi_offset 4, -12
 297              		.cfi_offset 5, -8
 298              		.cfi_offset 14, -4
 299 0002 83B0     		sub	sp, sp, #12
 300              		.cfi_def_cfa_offset 24
 301 0004 1546     		mov	r5, r2
 302 0006 1C46     		mov	r4, r3
ARM GAS  C:\Users\satomin\AppData\Local\Temp\ccpt0mD2.s 			page 10


 210:.\I2Cdev/I2Cdev.c ****     uint16_t b;
 211:.\I2Cdev/I2Cdev.c ****     uint8_t count = I2Cdev_readWord(devAddr, regAddr, &b);
 303              		.loc 1 211 0
 304 0008 0DF10602 		add	r2, sp, #6
 305              	.LVL34:
 306 000c FFF7FEFF 		bl	I2Cdev_readWord
 307              	.LVL35:
 212:.\I2Cdev/I2Cdev.c ****     *data = b & (1 << bitNum);
 308              		.loc 1 212 0
 309 0010 0123     		movs	r3, #1
 310 0012 AB40     		lsls	r3, r3, r5
 311 0014 BDF80620 		ldrh	r2, [sp, #6]
 312 0018 1340     		ands	r3, r3, r2
 313 001a 2380     		strh	r3, [r4]	@ movhi
 213:.\I2Cdev/I2Cdev.c ****     return count;
 214:.\I2Cdev/I2Cdev.c **** }
 314              		.loc 1 214 0
 315 001c 03B0     		add	sp, sp, #12
 316              		.cfi_def_cfa_offset 12
 317              		@ sp needed
 318 001e 30BD     		pop	{r4, r5, pc}
 319              		.cfi_endproc
 320              	.LFE68:
 321              		.size	I2Cdev_readBitW, .-I2Cdev_readBitW
 322              		.section	.text.I2Cdev_readBits,"ax",%progbits
 323              		.align	2
 324              		.global	I2Cdev_readBits
 325              		.thumb
 326              		.thumb_func
 327              		.type	I2Cdev_readBits, %function
 328              	I2Cdev_readBits:
 329              	.LFB69:
 215:.\I2Cdev/I2Cdev.c **** 
 216:.\I2Cdev/I2Cdev.c **** /** Read multiple bits from an 8-bit device register.
 217:.\I2Cdev/I2Cdev.c ****  * @param devAddr I2C slave device address
 218:.\I2Cdev/I2Cdev.c ****  * @param regAddr Register regAddr to read from
 219:.\I2Cdev/I2Cdev.c ****  * @param bitStart First bit position to read (0-7)
 220:.\I2Cdev/I2Cdev.c ****  * @param length Number of bits to read (not more than 8)
 221:.\I2Cdev/I2Cdev.c ****  * @param data Container for right-aligned value (i.e. '101' read from any bitStart position will e
 222:.\I2Cdev/I2Cdev.c ****  * @return Status of read operation (true = success)
 223:.\I2Cdev/I2Cdev.c ****  */
 224:.\I2Cdev/I2Cdev.c **** int8_t I2Cdev_readBits(uint8_t devAddr, uint8_t regAddr, uint8_t bitStart, uint8_t length, uint8_t 
 330              		.loc 1 224 0
 331              		.cfi_startproc
 332              		@ args = 4, pretend = 0, frame = 8
 333              		@ frame_needed = 0, uses_anonymous_args = 0
 334              	.LVL36:
 335 0000 30B5     		push	{r4, r5, lr}
 336              		.cfi_def_cfa_offset 12
 337              		.cfi_offset 4, -12
 338              		.cfi_offset 5, -8
 339              		.cfi_offset 14, -4
 340 0002 83B0     		sub	sp, sp, #12
 341              		.cfi_def_cfa_offset 24
 342 0004 1446     		mov	r4, r2
 343 0006 1D46     		mov	r5, r3
 225:.\I2Cdev/I2Cdev.c ****     // 01101001 read byte
ARM GAS  C:\Users\satomin\AppData\Local\Temp\ccpt0mD2.s 			page 11


 226:.\I2Cdev/I2Cdev.c ****     // 76543210 bit numbers
 227:.\I2Cdev/I2Cdev.c ****     //    xxx   args: bitStart=4, length=3
 228:.\I2Cdev/I2Cdev.c ****     //    010   masked
 229:.\I2Cdev/I2Cdev.c ****     //   -> 010 shifted
 230:.\I2Cdev/I2Cdev.c ****     uint8_t count, b;
 231:.\I2Cdev/I2Cdev.c ****     if ((count = I2Cdev_readByte(devAddr, regAddr, &b)) != 0) {
 344              		.loc 1 231 0
 345 0008 0DF10702 		add	r2, sp, #7
 346              	.LVL37:
 347 000c FFF7FEFF 		bl	I2Cdev_readByte
 348              	.LVL38:
 349 0010 10F0FF0F 		tst	r0, #255
 350 0014 0BD0     		beq	.L20
 351              	.LBB3:
 232:.\I2Cdev/I2Cdev.c ****         uint8_t mask = ((1 << length) - 1) << (bitStart - length + 1);
 352              		.loc 1 232 0
 353 0016 0121     		movs	r1, #1
 354 0018 A940     		lsls	r1, r1, r5
 355 001a 0139     		subs	r1, r1, #1
 356 001c 621B     		subs	r2, r4, r5
 357 001e 0132     		adds	r2, r2, #1
 358 0020 9140     		lsls	r1, r1, r2
 359              	.LVL39:
 233:.\I2Cdev/I2Cdev.c ****         b &= mask;
 360              		.loc 1 233 0
 361 0022 9DF80730 		ldrb	r3, [sp, #7]	@ zero_extendqisi2
 362 0026 1940     		ands	r1, r1, r3
 363              	.LVL40:
 234:.\I2Cdev/I2Cdev.c ****         b >>= (bitStart - length + 1);
 364              		.loc 1 234 0
 365 0028 1141     		asrs	r1, r1, r2
 366              	.LVL41:
 235:.\I2Cdev/I2Cdev.c ****         *data = b;
 367              		.loc 1 235 0
 368 002a 069B     		ldr	r3, [sp, #24]
 369 002c 1970     		strb	r1, [r3]
 370              	.LVL42:
 371              	.L20:
 372              	.LBE3:
 236:.\I2Cdev/I2Cdev.c ****     }
 237:.\I2Cdev/I2Cdev.c ****     return count;
 238:.\I2Cdev/I2Cdev.c **** }
 373              		.loc 1 238 0
 374 002e 03B0     		add	sp, sp, #12
 375              		.cfi_def_cfa_offset 12
 376              		@ sp needed
 377 0030 30BD     		pop	{r4, r5, pc}
 378              		.cfi_endproc
 379              	.LFE69:
 380              		.size	I2Cdev_readBits, .-I2Cdev_readBits
 381 0032 00BF     		.section	.text.I2Cdev_readBitsW,"ax",%progbits
 382              		.align	2
 383              		.global	I2Cdev_readBitsW
 384              		.thumb
 385              		.thumb_func
 386              		.type	I2Cdev_readBitsW, %function
 387              	I2Cdev_readBitsW:
ARM GAS  C:\Users\satomin\AppData\Local\Temp\ccpt0mD2.s 			page 12


 388              	.LFB70:
 239:.\I2Cdev/I2Cdev.c **** 
 240:.\I2Cdev/I2Cdev.c **** /** Read multiple bits from a 16-bit device register.
 241:.\I2Cdev/I2Cdev.c ****  * @param devAddr I2C slave device address
 242:.\I2Cdev/I2Cdev.c ****  * @param regAddr Register regAddr to read from
 243:.\I2Cdev/I2Cdev.c ****  * @param bitStart First bit position to read (0-15)
 244:.\I2Cdev/I2Cdev.c ****  * @param length Number of bits to read (not more than 16)
 245:.\I2Cdev/I2Cdev.c ****  * @param data Container for right-aligned value (i.e. '101' read from any bitStart position will e
 246:.\I2Cdev/I2Cdev.c ****  * @return Status of read operation (1 = success, 0 = failure, -1 = timeout)
 247:.\I2Cdev/I2Cdev.c ****  */
 248:.\I2Cdev/I2Cdev.c **** int8_t I2Cdev_readBitsW(uint8_t devAddr, uint8_t regAddr, uint8_t bitStart, uint8_t length, uint16_
 389              		.loc 1 248 0
 390              		.cfi_startproc
 391              		@ args = 4, pretend = 0, frame = 8
 392              		@ frame_needed = 0, uses_anonymous_args = 0
 393              	.LVL43:
 394 0000 30B5     		push	{r4, r5, lr}
 395              		.cfi_def_cfa_offset 12
 396              		.cfi_offset 4, -12
 397              		.cfi_offset 5, -8
 398              		.cfi_offset 14, -4
 399 0002 83B0     		sub	sp, sp, #12
 400              		.cfi_def_cfa_offset 24
 401 0004 1446     		mov	r4, r2
 402 0006 1D46     		mov	r5, r3
 249:.\I2Cdev/I2Cdev.c ****     // 1101011001101001 read byte
 250:.\I2Cdev/I2Cdev.c ****     // fedcba9876543210 bit numbers
 251:.\I2Cdev/I2Cdev.c ****     //    xxx           args: bitStart=12, length=3
 252:.\I2Cdev/I2Cdev.c ****     //    010           masked
 253:.\I2Cdev/I2Cdev.c ****     //           -> 010 shifted
 254:.\I2Cdev/I2Cdev.c ****     uint8_t count;
 255:.\I2Cdev/I2Cdev.c ****     uint16_t w;
 256:.\I2Cdev/I2Cdev.c ****     if ((count = I2Cdev_readWord(devAddr, regAddr, &w)) != 0) {
 403              		.loc 1 256 0
 404 0008 0DF10602 		add	r2, sp, #6
 405              	.LVL44:
 406 000c FFF7FEFF 		bl	I2Cdev_readWord
 407              	.LVL45:
 408 0010 10F0FF0F 		tst	r0, #255
 409 0014 0BD0     		beq	.L23
 410              	.LBB4:
 257:.\I2Cdev/I2Cdev.c ****         uint16_t mask = ((1 << length) - 1) << (bitStart - length + 1);
 411              		.loc 1 257 0
 412 0016 0121     		movs	r1, #1
 413 0018 A940     		lsls	r1, r1, r5
 414 001a 0139     		subs	r1, r1, #1
 415 001c 621B     		subs	r2, r4, r5
 416 001e 0132     		adds	r2, r2, #1
 417 0020 9140     		lsls	r1, r1, r2
 418              	.LVL46:
 258:.\I2Cdev/I2Cdev.c ****         w &= mask;
 419              		.loc 1 258 0
 420 0022 BDF80630 		ldrh	r3, [sp, #6]
 421 0026 1940     		ands	r1, r1, r3
 422              	.LVL47:
 259:.\I2Cdev/I2Cdev.c ****         w >>= (bitStart - length + 1);
 423              		.loc 1 259 0
ARM GAS  C:\Users\satomin\AppData\Local\Temp\ccpt0mD2.s 			page 13


 424 0028 1141     		asrs	r1, r1, r2
 425              	.LVL48:
 260:.\I2Cdev/I2Cdev.c ****         *data = w;
 426              		.loc 1 260 0
 427 002a 069B     		ldr	r3, [sp, #24]
 428 002c 1980     		strh	r1, [r3]	@ movhi
 429              	.LVL49:
 430              	.L23:
 431              	.LBE4:
 261:.\I2Cdev/I2Cdev.c ****     }
 262:.\I2Cdev/I2Cdev.c ****     return count;
 263:.\I2Cdev/I2Cdev.c **** }
 432              		.loc 1 263 0
 433 002e 03B0     		add	sp, sp, #12
 434              		.cfi_def_cfa_offset 12
 435              		@ sp needed
 436 0030 30BD     		pop	{r4, r5, pc}
 437              		.cfi_endproc
 438              	.LFE70:
 439              		.size	I2Cdev_readBitsW, .-I2Cdev_readBitsW
 440 0032 00BF     		.section	.text.I2Cdev_writeBytes,"ax",%progbits
 441              		.align	2
 442              		.global	I2Cdev_writeBytes
 443              		.thumb
 444              		.thumb_func
 445              		.type	I2Cdev_writeBytes, %function
 446              	I2Cdev_writeBytes:
 447              	.LFB71:
 264:.\I2Cdev/I2Cdev.c **** 
 265:.\I2Cdev/I2Cdev.c **** /** Write multiple bytes to an 8-bit device register.
 266:.\I2Cdev/I2Cdev.c ****  * @param devAddr I2C slave device address
 267:.\I2Cdev/I2Cdev.c ****  * @param regAddr First register address to write to
 268:.\I2Cdev/I2Cdev.c ****  * @param length Number of bytes to write
 269:.\I2Cdev/I2Cdev.c ****  * @param data Buffer to copy new data from
 270:.\I2Cdev/I2Cdev.c ****  * @return Status of operation (true = success)
 271:.\I2Cdev/I2Cdev.c ****  */
 272:.\I2Cdev/I2Cdev.c **** bool I2Cdev_writeBytes(uint8_t devAddr, uint8_t regAddr, uint8_t length, uint8_t* data) {
 448              		.loc 1 272 0
 449              		.cfi_startproc
 450              		@ args = 0, pretend = 0, frame = 0
 451              		@ frame_needed = 1, uses_anonymous_args = 0
 452              	.LVL50:
 453 0000 B0B5     		push	{r4, r5, r7, lr}
 454              		.cfi_def_cfa_offset 16
 455              		.cfi_offset 4, -16
 456              		.cfi_offset 5, -12
 457              		.cfi_offset 7, -8
 458              		.cfi_offset 14, -4
 459 0002 00AF     		add	r7, sp, #0
 460              		.cfi_def_cfa_register 7
 461 0004 0546     		mov	r5, r0
 273:.\I2Cdev/I2Cdev.c ****     uint8_t array[length + 1];
 462              		.loc 1 273 0
 463 0006 541C     		adds	r4, r2, #1
 464              	.LVL51:
 465 0008 0832     		adds	r2, r2, #8
 466              	.LVL52:
ARM GAS  C:\Users\satomin\AppData\Local\Temp\ccpt0mD2.s 			page 14


 467 000a 22F00702 		bic	r2, r2, #7
 468              	.LVL53:
 469 000e ADEB020D 		sub	sp, sp, r2
 470              	.LVL54:
 274:.\I2Cdev/I2Cdev.c ****     /*
 275:.\I2Cdev/I2Cdev.c ****     // S
 276:.\I2Cdev/I2Cdev.c ****     IdleI2C();
 277:.\I2Cdev/I2Cdev.c ****     StartI2C();
 278:.\I2Cdev/I2Cdev.c **** 
 279:.\I2Cdev/I2Cdev.c ****     // Device write address
 280:.\I2Cdev/I2Cdev.c ****     IdleI2C();
 281:.\I2Cdev/I2Cdev.c ****     WriteI2C(devAddr << 1 | 0x00);
 282:.\I2Cdev/I2Cdev.c **** 
 283:.\I2Cdev/I2Cdev.c ****     // Register address
 284:.\I2Cdev/I2Cdev.c ****     IdleI2C();
 285:.\I2Cdev/I2Cdev.c ****     WriteI2C(regAddr);
 286:.\I2Cdev/I2Cdev.c **** 
 287:.\I2Cdev/I2Cdev.c ****     for (uint8_t i = 0; i < length; i++) {
 288:.\I2Cdev/I2Cdev.c ****         // Data byte
 289:.\I2Cdev/I2Cdev.c ****         IdleI2C();
 290:.\I2Cdev/I2Cdev.c ****         WriteI2C(data[i]);
 291:.\I2Cdev/I2Cdev.c ****     }
 292:.\I2Cdev/I2Cdev.c ****     
 293:.\I2Cdev/I2Cdev.c ****     // P
 294:.\I2Cdev/I2Cdev.c ****     IdleI2C();
 295:.\I2Cdev/I2Cdev.c ****     StopI2C();
 296:.\I2Cdev/I2Cdev.c **** 
 297:.\I2Cdev/I2Cdev.c ****     return true;
 298:.\I2Cdev/I2Cdev.c ****     */
 299:.\I2Cdev/I2Cdev.c ****     array[0] = regAddr;
 471              		.loc 1 299 0
 472 0012 6846     		mov	r0, sp
 473              	.LVL55:
 474 0014 00F8011B 		strb	r1, [r0], #1
 300:.\I2Cdev/I2Cdev.c ****     strcpy((char*)(array + 1),(char*)data);
 475              		.loc 1 300 0
 476 0018 1946     		mov	r1, r3
 477              	.LVL56:
 478 001a FFF7FEFF 		bl	strcpy
 479              	.LVL57:
 301:.\I2Cdev/I2Cdev.c ****     I2C_MasterWriteBuf(devAddr, array, length+1, I2C_MODE_COMPLETE_XFER);
 480              		.loc 1 301 0
 481 001e 2846     		mov	r0, r5
 482 0020 6946     		mov	r1, sp
 483 0022 E2B2     		uxtb	r2, r4
 484 0024 0023     		movs	r3, #0
 485 0026 FFF7FEFF 		bl	I2C_MasterWriteBuf
 486              	.LVL58:
 487              	.L26:
 302:.\I2Cdev/I2Cdev.c ****     while((I2C_MSTAT_WR_CMPLT & I2C_MasterStatus()) == 0);
 488              		.loc 1 302 0 discriminator 1
 489 002a FFF7FEFF 		bl	I2C_MasterStatus
 490              	.LVL59:
 491 002e 10F0020F 		tst	r0, #2
 492 0032 FAD0     		beq	.L26
 303:.\I2Cdev/I2Cdev.c ****     return true;
 304:.\I2Cdev/I2Cdev.c **** }
ARM GAS  C:\Users\satomin\AppData\Local\Temp\ccpt0mD2.s 			page 15


 493              		.loc 1 304 0
 494 0034 0120     		movs	r0, #1
 495 0036 BD46     		mov	sp, r7
 496              		.cfi_def_cfa_register 13
 497              	.LVL60:
 498              		@ sp needed
 499 0038 B0BD     		pop	{r4, r5, r7, pc}
 500              		.cfi_endproc
 501              	.LFE71:
 502              		.size	I2Cdev_writeBytes, .-I2Cdev_writeBytes
 503 003a 00BF     		.section	.text.I2Cdev_writeByte,"ax",%progbits
 504              		.align	2
 505              		.global	I2Cdev_writeByte
 506              		.thumb
 507              		.thumb_func
 508              		.type	I2Cdev_writeByte, %function
 509              	I2Cdev_writeByte:
 510              	.LFB72:
 305:.\I2Cdev/I2Cdev.c **** 
 306:.\I2Cdev/I2Cdev.c **** /** Write single byte to an 8-bit device register.
 307:.\I2Cdev/I2Cdev.c ****  * @param devAddr I2C slave device address
 308:.\I2Cdev/I2Cdev.c ****  * @param regAddr Register address to write to
 309:.\I2Cdev/I2Cdev.c ****  * @param data New byte value to write
 310:.\I2Cdev/I2Cdev.c ****  * @return Status of operation (true = success)
 311:.\I2Cdev/I2Cdev.c ****  */
 312:.\I2Cdev/I2Cdev.c **** bool I2Cdev_writeByte(uint8_t devAddr, uint8_t regAddr, uint8_t data) {
 511              		.loc 1 312 0
 512              		.cfi_startproc
 513              		@ args = 0, pretend = 0, frame = 8
 514              		@ frame_needed = 0, uses_anonymous_args = 0
 515              	.LVL61:
 516 0000 00B5     		push	{lr}
 517              		.cfi_def_cfa_offset 4
 518              		.cfi_offset 14, -4
 519 0002 83B0     		sub	sp, sp, #12
 520              		.cfi_def_cfa_offset 16
 521 0004 02AB     		add	r3, sp, #8
 522 0006 03F8012D 		strb	r2, [r3, #-1]!
 313:.\I2Cdev/I2Cdev.c ****     return I2Cdev_writeBytes(devAddr, regAddr, 1, &data);
 523              		.loc 1 313 0
 524 000a 0122     		movs	r2, #1
 525              	.LVL62:
 526 000c FFF7FEFF 		bl	I2Cdev_writeBytes
 527              	.LVL63:
 314:.\I2Cdev/I2Cdev.c **** }
 528              		.loc 1 314 0
 529 0010 03B0     		add	sp, sp, #12
 530              		.cfi_def_cfa_offset 4
 531              		@ sp needed
 532 0012 5DF804FB 		ldr	pc, [sp], #4
 533              		.cfi_endproc
 534              	.LFE72:
 535              		.size	I2Cdev_writeByte, .-I2Cdev_writeByte
 536 0016 00BF     		.section	.text.I2Cdev_writeWords,"ax",%progbits
 537              		.align	2
 538              		.global	I2Cdev_writeWords
 539              		.thumb
ARM GAS  C:\Users\satomin\AppData\Local\Temp\ccpt0mD2.s 			page 16


 540              		.thumb_func
 541              		.type	I2Cdev_writeWords, %function
 542              	I2Cdev_writeWords:
 543              	.LFB73:
 315:.\I2Cdev/I2Cdev.c **** 
 316:.\I2Cdev/I2Cdev.c **** /** Write multiple words to a 16-bit device register.
 317:.\I2Cdev/I2Cdev.c ****  * @param devAddr I2C slave device address
 318:.\I2Cdev/I2Cdev.c ****  * @param regAddr First register address to write to
 319:.\I2Cdev/I2Cdev.c ****  * @param length Number of words to write
 320:.\I2Cdev/I2Cdev.c ****  * @param data Buffer to copy new data from
 321:.\I2Cdev/I2Cdev.c ****  * @return Status of operation (true = success)
 322:.\I2Cdev/I2Cdev.c ****  */
 323:.\I2Cdev/I2Cdev.c **** bool I2Cdev_writeWords(uint8_t devAddr, uint8_t regAddr, uint8_t length, uint16_t* data) {
 544              		.loc 1 323 0
 545              		.cfi_startproc
 546              		@ args = 0, pretend = 0, frame = 0
 547              		@ frame_needed = 1, uses_anonymous_args = 0
 548              	.LVL64:
 549 0000 F8B5     		push	{r3, r4, r5, r6, r7, lr}
 550              		.cfi_def_cfa_offset 24
 551              		.cfi_offset 3, -24
 552              		.cfi_offset 4, -20
 553              		.cfi_offset 5, -16
 554              		.cfi_offset 6, -12
 555              		.cfi_offset 7, -8
 556              		.cfi_offset 14, -4
 557 0002 00AF     		add	r7, sp, #0
 558              		.cfi_def_cfa_register 7
 324:.\I2Cdev/I2Cdev.c ****     uint8_t array[length * 2 + 1];
 559              		.loc 1 324 0
 560 0004 5400     		lsls	r4, r2, #1
 561              	.LVL65:
 562 0006 0834     		adds	r4, r4, #8
 563              	.LVL66:
 564 0008 24F00704 		bic	r4, r4, #7
 565              	.LVL67:
 566 000c ADEB040D 		sub	sp, sp, r4
 567 0010 6D46     		mov	r5, sp
 568              	.LVL68:
 325:.\I2Cdev/I2Cdev.c ****     /*
 326:.\I2Cdev/I2Cdev.c ****     // S
 327:.\I2Cdev/I2Cdev.c ****     IdleI2C();
 328:.\I2Cdev/I2Cdev.c ****     StartI2C();
 329:.\I2Cdev/I2Cdev.c **** 
 330:.\I2Cdev/I2Cdev.c ****     // Device write address
 331:.\I2Cdev/I2Cdev.c ****     IdleI2C();
 332:.\I2Cdev/I2Cdev.c ****     WriteI2C(devAddr << 1 | 0x00);
 333:.\I2Cdev/I2Cdev.c **** 
 334:.\I2Cdev/I2Cdev.c ****     // Register address
 335:.\I2Cdev/I2Cdev.c ****     IdleI2C();
 336:.\I2Cdev/I2Cdev.c ****     WriteI2C(regAddr);
 337:.\I2Cdev/I2Cdev.c **** 
 338:.\I2Cdev/I2Cdev.c ****     for (uint8_t i = 0; i < length; i++) {
 339:.\I2Cdev/I2Cdev.c ****         // Send MSB
 340:.\I2Cdev/I2Cdev.c ****         IdleI2C();
 341:.\I2Cdev/I2Cdev.c ****         WriteI2C(data[i] >> 8);
 342:.\I2Cdev/I2Cdev.c **** 
ARM GAS  C:\Users\satomin\AppData\Local\Temp\ccpt0mD2.s 			page 17


 343:.\I2Cdev/I2Cdev.c ****         // Send LSB
 344:.\I2Cdev/I2Cdev.c ****         IdleI2C();
 345:.\I2Cdev/I2Cdev.c ****         WriteI2C(data[i] & 0xFF);
 346:.\I2Cdev/I2Cdev.c ****     }
 347:.\I2Cdev/I2Cdev.c **** 
 348:.\I2Cdev/I2Cdev.c ****     // P
 349:.\I2Cdev/I2Cdev.c ****     IdleI2C();
 350:.\I2Cdev/I2Cdev.c ****     StopI2C();
 351:.\I2Cdev/I2Cdev.c **** 
 352:.\I2Cdev/I2Cdev.c ****     return true;
 353:.\I2Cdev/I2Cdev.c ****     */
 354:.\I2Cdev/I2Cdev.c ****     
 355:.\I2Cdev/I2Cdev.c ****     array[0] = regAddr;
 569              		.loc 1 355 0
 570 0012 8DF80010 		strb	r1, [sp]
 571              	.LVL69:
 572              	.LBB5:
 356:.\I2Cdev/I2Cdev.c ****     for(uint8_t i = 0;i < length;i++){
 573              		.loc 1 356 0
 574 0016 0021     		movs	r1, #0
 575              	.LVL70:
 576 0018 0BE0     		b	.L31
 577              	.LVL71:
 578              	.L32:
 357:.\I2Cdev/I2Cdev.c ****         array[i*2+1] = (data[i] >> 8) & 0xff;
 579              		.loc 1 357 0 discriminator 3
 580 001a 05EB4106 		add	r6, r5, r1, lsl #1
 581 001e 33F81140 		ldrh	r4, [r3, r1, lsl #1]
 582 0022 4FEA142E 		lsr	lr, r4, #8
 583 0026 86F801E0 		strb	lr, [r6, #1]
 358:.\I2Cdev/I2Cdev.c ****         array[i*2+2] = (data[i] & 0xff);
 584              		.loc 1 358 0 discriminator 3
 585 002a 0131     		adds	r1, r1, #1
 586              	.LVL72:
 587 002c 05F81140 		strb	r4, [r5, r1, lsl #1]
 356:.\I2Cdev/I2Cdev.c ****     for(uint8_t i = 0;i < length;i++){
 588              		.loc 1 356 0 discriminator 3
 589 0030 C9B2     		uxtb	r1, r1
 590              	.LVL73:
 591              	.L31:
 356:.\I2Cdev/I2Cdev.c ****     for(uint8_t i = 0;i < length;i++){
 592              		.loc 1 356 0 is_stmt 0 discriminator 1
 593 0032 9142     		cmp	r1, r2
 594 0034 F1D3     		bcc	.L32
 595              	.LBE5:
 359:.\I2Cdev/I2Cdev.c ****     }
 360:.\I2Cdev/I2Cdev.c ****     I2C_MasterWriteBuf(devAddr, array, length+1, I2C_MODE_COMPLETE_XFER);
 596              		.loc 1 360 0 is_stmt 1
 597 0036 0132     		adds	r2, r2, #1
 598              	.LVL74:
 599 0038 2946     		mov	r1, r5
 600              	.LVL75:
 601 003a D2B2     		uxtb	r2, r2
 602              	.LVL76:
 603 003c 0023     		movs	r3, #0
 604              	.LVL77:
 605 003e FFF7FEFF 		bl	I2C_MasterWriteBuf
ARM GAS  C:\Users\satomin\AppData\Local\Temp\ccpt0mD2.s 			page 18


 606              	.LVL78:
 607              	.L33:
 361:.\I2Cdev/I2Cdev.c ****     while((I2C_MSTAT_WR_CMPLT & I2C_MasterStatus()) == 0);
 608              		.loc 1 361 0 discriminator 1
 609 0042 FFF7FEFF 		bl	I2C_MasterStatus
 610              	.LVL79:
 611 0046 10F0020F 		tst	r0, #2
 612 004a FAD0     		beq	.L33
 362:.\I2Cdev/I2Cdev.c ****     return true;
 363:.\I2Cdev/I2Cdev.c **** }
 613              		.loc 1 363 0
 614 004c 0120     		movs	r0, #1
 615 004e BD46     		mov	sp, r7
 616              		.cfi_def_cfa_register 13
 617              		@ sp needed
 618 0050 F8BD     		pop	{r3, r4, r5, r6, r7, pc}
 619              		.cfi_endproc
 620              	.LFE73:
 621              		.size	I2Cdev_writeWords, .-I2Cdev_writeWords
 622 0052 00BF     		.section	.text.I2Cdev_writeWord,"ax",%progbits
 623              		.align	2
 624              		.global	I2Cdev_writeWord
 625              		.thumb
 626              		.thumb_func
 627              		.type	I2Cdev_writeWord, %function
 628              	I2Cdev_writeWord:
 629              	.LFB74:
 364:.\I2Cdev/I2Cdev.c **** 
 365:.\I2Cdev/I2Cdev.c **** /** Write single word to a 16-bit device register.
 366:.\I2Cdev/I2Cdev.c ****  * @param devAddr I2C slave device address
 367:.\I2Cdev/I2Cdev.c ****  * @param regAddr Register address to write to
 368:.\I2Cdev/I2Cdev.c ****  * @param data New word value to write
 369:.\I2Cdev/I2Cdev.c ****  * @return Status of operation (true = success)
 370:.\I2Cdev/I2Cdev.c ****  */
 371:.\I2Cdev/I2Cdev.c **** bool I2Cdev_writeWord(uint8_t devAddr, uint8_t regAddr, uint16_t data) {
 630              		.loc 1 371 0
 631              		.cfi_startproc
 632              		@ args = 0, pretend = 0, frame = 8
 633              		@ frame_needed = 0, uses_anonymous_args = 0
 634              	.LVL80:
 635 0000 00B5     		push	{lr}
 636              		.cfi_def_cfa_offset 4
 637              		.cfi_offset 14, -4
 638 0002 83B0     		sub	sp, sp, #12
 639              		.cfi_def_cfa_offset 16
 640 0004 02AB     		add	r3, sp, #8
 641 0006 23F8022D 		strh	r2, [r3, #-2]!	@ movhi
 372:.\I2Cdev/I2Cdev.c ****     return I2Cdev_writeWords(devAddr, regAddr, 1, &data);
 642              		.loc 1 372 0
 643 000a 0122     		movs	r2, #1
 644              	.LVL81:
 645 000c FFF7FEFF 		bl	I2Cdev_writeWords
 646              	.LVL82:
 373:.\I2Cdev/I2Cdev.c **** }
 647              		.loc 1 373 0
 648 0010 03B0     		add	sp, sp, #12
 649              		.cfi_def_cfa_offset 4
ARM GAS  C:\Users\satomin\AppData\Local\Temp\ccpt0mD2.s 			page 19


 650              		@ sp needed
 651 0012 5DF804FB 		ldr	pc, [sp], #4
 652              		.cfi_endproc
 653              	.LFE74:
 654              		.size	I2Cdev_writeWord, .-I2Cdev_writeWord
 655 0016 00BF     		.section	.text.I2Cdev_writeBit,"ax",%progbits
 656              		.align	2
 657              		.global	I2Cdev_writeBit
 658              		.thumb
 659              		.thumb_func
 660              		.type	I2Cdev_writeBit, %function
 661              	I2Cdev_writeBit:
 662              	.LFB75:
 374:.\I2Cdev/I2Cdev.c **** 
 375:.\I2Cdev/I2Cdev.c **** /** write a single bit in an 8-bit device register.
 376:.\I2Cdev/I2Cdev.c ****  * @param devAddr I2C slave device address
 377:.\I2Cdev/I2Cdev.c ****  * @param regAddr Register regAddr to write to
 378:.\I2Cdev/I2Cdev.c ****  * @param bitNum Bit position to write (0-7)
 379:.\I2Cdev/I2Cdev.c ****  * @param value New bit value to write
 380:.\I2Cdev/I2Cdev.c ****  * @return Status of operation (true = success)
 381:.\I2Cdev/I2Cdev.c ****  */
 382:.\I2Cdev/I2Cdev.c **** bool I2Cdev_writeBit(uint8_t devAddr, uint8_t regAddr, uint8_t bitNum, uint8_t data) {
 663              		.loc 1 382 0
 664              		.cfi_startproc
 665              		@ args = 0, pretend = 0, frame = 8
 666              		@ frame_needed = 0, uses_anonymous_args = 0
 667              	.LVL83:
 668 0000 F0B5     		push	{r4, r5, r6, r7, lr}
 669              		.cfi_def_cfa_offset 20
 670              		.cfi_offset 4, -20
 671              		.cfi_offset 5, -16
 672              		.cfi_offset 6, -12
 673              		.cfi_offset 7, -8
 674              		.cfi_offset 14, -4
 675 0002 83B0     		sub	sp, sp, #12
 676              		.cfi_def_cfa_offset 32
 677 0004 0546     		mov	r5, r0
 678 0006 0C46     		mov	r4, r1
 679 0008 1646     		mov	r6, r2
 680 000a 1F46     		mov	r7, r3
 383:.\I2Cdev/I2Cdev.c ****     uint8_t b;
 384:.\I2Cdev/I2Cdev.c ****     I2Cdev_readByte(devAddr, regAddr, &b);
 681              		.loc 1 384 0
 682 000c 0DF10702 		add	r2, sp, #7
 683              	.LVL84:
 684 0010 FFF7FEFF 		bl	I2Cdev_readByte
 685              	.LVL85:
 385:.\I2Cdev/I2Cdev.c ****     b = (data != 0) ? (b | (1 << bitNum)) : (b & ~(1 << bitNum));
 686              		.loc 1 385 0
 687 0014 37B1     		cbz	r7, .L38
 688              		.loc 1 385 0 is_stmt 0 discriminator 1
 689 0016 0122     		movs	r2, #1
 690 0018 B240     		lsls	r2, r2, r6
 691 001a 9DF80730 		ldrb	r3, [sp, #7]	@ zero_extendqisi2
 692 001e 1A43     		orrs	r2, r2, r3
 693 0020 D2B2     		uxtb	r2, r2
 694 0022 05E0     		b	.L39
ARM GAS  C:\Users\satomin\AppData\Local\Temp\ccpt0mD2.s 			page 20


 695              	.L38:
 696              		.loc 1 385 0 discriminator 2
 697 0024 0122     		movs	r2, #1
 698 0026 B240     		lsls	r2, r2, r6
 699 0028 9DF80730 		ldrb	r3, [sp, #7]	@ zero_extendqisi2
 700 002c 23EA0202 		bic	r2, r3, r2
 701              	.L39:
 702              		.loc 1 385 0 discriminator 4
 703 0030 8DF80720 		strb	r2, [sp, #7]
 386:.\I2Cdev/I2Cdev.c ****     return I2Cdev_writeByte(devAddr, regAddr, b);
 704              		.loc 1 386 0 is_stmt 1 discriminator 4
 705 0034 2846     		mov	r0, r5
 706 0036 2146     		mov	r1, r4
 707 0038 FFF7FEFF 		bl	I2Cdev_writeByte
 708              	.LVL86:
 387:.\I2Cdev/I2Cdev.c **** }
 709              		.loc 1 387 0 discriminator 4
 710 003c 03B0     		add	sp, sp, #12
 711              		.cfi_def_cfa_offset 20
 712              		@ sp needed
 713 003e F0BD     		pop	{r4, r5, r6, r7, pc}
 714              		.cfi_endproc
 715              	.LFE75:
 716              		.size	I2Cdev_writeBit, .-I2Cdev_writeBit
 717              		.section	.text.I2Cdev_writeBitW,"ax",%progbits
 718              		.align	2
 719              		.global	I2Cdev_writeBitW
 720              		.thumb
 721              		.thumb_func
 722              		.type	I2Cdev_writeBitW, %function
 723              	I2Cdev_writeBitW:
 724              	.LFB76:
 388:.\I2Cdev/I2Cdev.c **** 
 389:.\I2Cdev/I2Cdev.c **** /** write a single bit in a 16-bit device register.
 390:.\I2Cdev/I2Cdev.c ****  * @param devAddr I2C slave device address
 391:.\I2Cdev/I2Cdev.c ****  * @param regAddr Register regAddr to write to
 392:.\I2Cdev/I2Cdev.c ****  * @param bitNum Bit position to write (0-15)
 393:.\I2Cdev/I2Cdev.c ****  * @param value New bit value to write
 394:.\I2Cdev/I2Cdev.c ****  * @return Status of operation (true = success)
 395:.\I2Cdev/I2Cdev.c ****  */
 396:.\I2Cdev/I2Cdev.c **** bool I2Cdev_writeBitW(uint8_t devAddr, uint8_t regAddr, uint8_t bitNum, uint16_t data) {
 725              		.loc 1 396 0
 726              		.cfi_startproc
 727              		@ args = 0, pretend = 0, frame = 8
 728              		@ frame_needed = 0, uses_anonymous_args = 0
 729              	.LVL87:
 730 0000 F0B5     		push	{r4, r5, r6, r7, lr}
 731              		.cfi_def_cfa_offset 20
 732              		.cfi_offset 4, -20
 733              		.cfi_offset 5, -16
 734              		.cfi_offset 6, -12
 735              		.cfi_offset 7, -8
 736              		.cfi_offset 14, -4
 737 0002 83B0     		sub	sp, sp, #12
 738              		.cfi_def_cfa_offset 32
 739 0004 0546     		mov	r5, r0
 740 0006 0C46     		mov	r4, r1
ARM GAS  C:\Users\satomin\AppData\Local\Temp\ccpt0mD2.s 			page 21


 741 0008 1646     		mov	r6, r2
 742 000a 1F46     		mov	r7, r3
 397:.\I2Cdev/I2Cdev.c ****     uint16_t w;
 398:.\I2Cdev/I2Cdev.c ****     I2Cdev_readWord(devAddr, regAddr, &w);
 743              		.loc 1 398 0
 744 000c 0DF10602 		add	r2, sp, #6
 745              	.LVL88:
 746 0010 FFF7FEFF 		bl	I2Cdev_readWord
 747              	.LVL89:
 399:.\I2Cdev/I2Cdev.c ****     w = (data != 0) ? (w | (1 << bitNum)) : (w & ~(1 << bitNum));
 748              		.loc 1 399 0
 749 0014 37B1     		cbz	r7, .L42
 750              		.loc 1 399 0 is_stmt 0 discriminator 1
 751 0016 0122     		movs	r2, #1
 752 0018 B240     		lsls	r2, r2, r6
 753 001a BDF80630 		ldrh	r3, [sp, #6]
 754 001e 1A43     		orrs	r2, r2, r3
 755 0020 92B2     		uxth	r2, r2
 756 0022 05E0     		b	.L43
 757              	.L42:
 758              		.loc 1 399 0 discriminator 2
 759 0024 0122     		movs	r2, #1
 760 0026 B240     		lsls	r2, r2, r6
 761 0028 BDF80630 		ldrh	r3, [sp, #6]
 762 002c 23EA0202 		bic	r2, r3, r2
 763              	.L43:
 764              		.loc 1 399 0 discriminator 4
 765 0030 ADF80620 		strh	r2, [sp, #6]	@ movhi
 400:.\I2Cdev/I2Cdev.c ****     return I2Cdev_writeWord(devAddr, regAddr, w);
 766              		.loc 1 400 0 is_stmt 1 discriminator 4
 767 0034 2846     		mov	r0, r5
 768 0036 2146     		mov	r1, r4
 769 0038 FFF7FEFF 		bl	I2Cdev_writeWord
 770              	.LVL90:
 401:.\I2Cdev/I2Cdev.c **** }
 771              		.loc 1 401 0 discriminator 4
 772 003c 03B0     		add	sp, sp, #12
 773              		.cfi_def_cfa_offset 20
 774              		@ sp needed
 775 003e F0BD     		pop	{r4, r5, r6, r7, pc}
 776              		.cfi_endproc
 777              	.LFE76:
 778              		.size	I2Cdev_writeBitW, .-I2Cdev_writeBitW
 779              		.section	.text.I2Cdev_writeBits,"ax",%progbits
 780              		.align	2
 781              		.global	I2Cdev_writeBits
 782              		.thumb
 783              		.thumb_func
 784              		.type	I2Cdev_writeBits, %function
 785              	I2Cdev_writeBits:
 786              	.LFB77:
 402:.\I2Cdev/I2Cdev.c **** 
 403:.\I2Cdev/I2Cdev.c **** /** Write multiple bits in an 8-bit device register.
 404:.\I2Cdev/I2Cdev.c ****  * @param devAddr I2C slave device address
 405:.\I2Cdev/I2Cdev.c ****  * @param regAddr Register regAddr to write to
 406:.\I2Cdev/I2Cdev.c ****  * @param bitStart First bit position to write (0-7)
 407:.\I2Cdev/I2Cdev.c ****  * @param length Number of bits to write (not more than 8)
ARM GAS  C:\Users\satomin\AppData\Local\Temp\ccpt0mD2.s 			page 22


 408:.\I2Cdev/I2Cdev.c ****  * @param data Right-aligned value to write
 409:.\I2Cdev/I2Cdev.c ****  * @return Status of operation (true = success)
 410:.\I2Cdev/I2Cdev.c ****  */
 411:.\I2Cdev/I2Cdev.c **** bool I2Cdev_writeBits(uint8_t devAddr, uint8_t regAddr, uint8_t bitStart, uint8_t length, uint8_t d
 787              		.loc 1 411 0
 788              		.cfi_startproc
 789              		@ args = 4, pretend = 0, frame = 8
 790              		@ frame_needed = 0, uses_anonymous_args = 0
 791              	.LVL91:
 792 0000 F0B5     		push	{r4, r5, r6, r7, lr}
 793              		.cfi_def_cfa_offset 20
 794              		.cfi_offset 4, -20
 795              		.cfi_offset 5, -16
 796              		.cfi_offset 6, -12
 797              		.cfi_offset 7, -8
 798              		.cfi_offset 14, -4
 799 0002 83B0     		sub	sp, sp, #12
 800              		.cfi_def_cfa_offset 32
 801 0004 0646     		mov	r6, r0
 802 0006 0D46     		mov	r5, r1
 803 0008 1446     		mov	r4, r2
 804 000a 1F46     		mov	r7, r3
 412:.\I2Cdev/I2Cdev.c ****     //      010 value to write
 413:.\I2Cdev/I2Cdev.c ****     // 76543210 bit numbers
 414:.\I2Cdev/I2Cdev.c ****     //    xxx   args: bitStart=4, length=3
 415:.\I2Cdev/I2Cdev.c ****     // 00011100 mask byte
 416:.\I2Cdev/I2Cdev.c ****     // 10101111 original value (sample)
 417:.\I2Cdev/I2Cdev.c ****     // 10100011 original & ~mask
 418:.\I2Cdev/I2Cdev.c ****     // 10101011 masked | value
 419:.\I2Cdev/I2Cdev.c ****     uint8_t b;
 420:.\I2Cdev/I2Cdev.c ****     if (I2Cdev_readByte(devAddr, regAddr, &b) != 0) {
 805              		.loc 1 420 0
 806 000c 0DF10702 		add	r2, sp, #7
 807              	.LVL92:
 808 0010 FFF7FEFF 		bl	I2Cdev_readByte
 809              	.LVL93:
 810 0014 B0B1     		cbz	r0, .L47
 811              	.LBB6:
 421:.\I2Cdev/I2Cdev.c ****         uint8_t mask = ((1 << length) - 1) << (bitStart - length + 1);
 812              		.loc 1 421 0
 813 0016 0121     		movs	r1, #1
 814 0018 B940     		lsls	r1, r1, r7
 815 001a 0139     		subs	r1, r1, #1
 816 001c E41B     		subs	r4, r4, r7
 817 001e 0134     		adds	r4, r4, #1
 818 0020 A140     		lsls	r1, r1, r4
 819              	.LVL94:
 422:.\I2Cdev/I2Cdev.c ****         data <<= (bitStart - length + 1); // shift data into correct position
 820              		.loc 1 422 0
 821 0022 9DF82030 		ldrb	r3, [sp, #32]	@ zero_extendqisi2
 822 0026 A340     		lsls	r3, r3, r4
 823 0028 DBB2     		uxtb	r3, r3
 824              	.LVL95:
 423:.\I2Cdev/I2Cdev.c ****         data &= mask; // zero all non-important bits in data
 825              		.loc 1 423 0
 826 002a 0B40     		ands	r3, r3, r1
 827              	.LVL96:
ARM GAS  C:\Users\satomin\AppData\Local\Temp\ccpt0mD2.s 			page 23


 424:.\I2Cdev/I2Cdev.c ****         b &= ~(mask); // zero all important bits in existing byte
 828              		.loc 1 424 0
 829 002c 9DF80720 		ldrb	r2, [sp, #7]	@ zero_extendqisi2
 830 0030 22EA0102 		bic	r2, r2, r1
 425:.\I2Cdev/I2Cdev.c ****         b |= data; // combine data with existing byte
 831              		.loc 1 425 0
 832 0034 1A43     		orrs	r2, r2, r3
 833 0036 8DF80720 		strb	r2, [sp, #7]
 426:.\I2Cdev/I2Cdev.c ****         return I2Cdev_writeByte(devAddr, regAddr, b);
 834              		.loc 1 426 0
 835 003a 3046     		mov	r0, r6
 836 003c 2946     		mov	r1, r5
 837              	.LVL97:
 838 003e FFF7FEFF 		bl	I2Cdev_writeByte
 839              	.LVL98:
 840 0042 00E0     		b	.L46
 841              	.LVL99:
 842              	.L47:
 843              	.LBE6:
 427:.\I2Cdev/I2Cdev.c ****     } else {
 428:.\I2Cdev/I2Cdev.c ****         return false;
 844              		.loc 1 428 0
 845 0044 0020     		movs	r0, #0
 846              	.LVL100:
 847              	.L46:
 429:.\I2Cdev/I2Cdev.c ****     }
 430:.\I2Cdev/I2Cdev.c **** }
 848              		.loc 1 430 0
 849 0046 03B0     		add	sp, sp, #12
 850              		.cfi_def_cfa_offset 20
 851              		@ sp needed
 852 0048 F0BD     		pop	{r4, r5, r6, r7, pc}
 853              		.cfi_endproc
 854              	.LFE77:
 855              		.size	I2Cdev_writeBits, .-I2Cdev_writeBits
 856 004a 00BF     		.section	.text.I2Cdev_writeBitsW,"ax",%progbits
 857              		.align	2
 858              		.global	I2Cdev_writeBitsW
 859              		.thumb
 860              		.thumb_func
 861              		.type	I2Cdev_writeBitsW, %function
 862              	I2Cdev_writeBitsW:
 863              	.LFB78:
 431:.\I2Cdev/I2Cdev.c **** 
 432:.\I2Cdev/I2Cdev.c **** /** Write multiple bits in a 16-bit device register.
 433:.\I2Cdev/I2Cdev.c ****  * @param devAddr I2C slave device address
 434:.\I2Cdev/I2Cdev.c ****  * @param regAddr Register regAddr to write to
 435:.\I2Cdev/I2Cdev.c ****  * @param bitStart First bit position to write (0-15)
 436:.\I2Cdev/I2Cdev.c ****  * @param length Number of bits to write (not more than 16)
 437:.\I2Cdev/I2Cdev.c ****  * @param data Right-aligned value to write
 438:.\I2Cdev/I2Cdev.c ****  * @return Status of operation (true = success)
 439:.\I2Cdev/I2Cdev.c ****  */
 440:.\I2Cdev/I2Cdev.c **** bool I2Cdev_writeBitsW(uint8_t devAddr, uint8_t regAddr, uint8_t bitStart, uint8_t length, uint16_t
 864              		.loc 1 440 0
 865              		.cfi_startproc
 866              		@ args = 4, pretend = 0, frame = 8
 867              		@ frame_needed = 0, uses_anonymous_args = 0
ARM GAS  C:\Users\satomin\AppData\Local\Temp\ccpt0mD2.s 			page 24


 868              	.LVL101:
 869 0000 F0B5     		push	{r4, r5, r6, r7, lr}
 870              		.cfi_def_cfa_offset 20
 871              		.cfi_offset 4, -20
 872              		.cfi_offset 5, -16
 873              		.cfi_offset 6, -12
 874              		.cfi_offset 7, -8
 875              		.cfi_offset 14, -4
 876 0002 83B0     		sub	sp, sp, #12
 877              		.cfi_def_cfa_offset 32
 878 0004 0646     		mov	r6, r0
 879 0006 0D46     		mov	r5, r1
 880 0008 1446     		mov	r4, r2
 881 000a 1F46     		mov	r7, r3
 441:.\I2Cdev/I2Cdev.c ****     //              010 value to write
 442:.\I2Cdev/I2Cdev.c ****     // fedcba9876543210 bit numbers
 443:.\I2Cdev/I2Cdev.c ****     //    xxx           args: bitStart=12, length=3
 444:.\I2Cdev/I2Cdev.c ****     // 0001110000000000 mask word
 445:.\I2Cdev/I2Cdev.c ****     // 1010111110010110 original value (sample)
 446:.\I2Cdev/I2Cdev.c ****     // 1010001110010110 original & ~mask
 447:.\I2Cdev/I2Cdev.c ****     // 1010101110010110 masked | value
 448:.\I2Cdev/I2Cdev.c ****     uint16_t w;
 449:.\I2Cdev/I2Cdev.c ****     if (I2Cdev_readWord(devAddr, regAddr, &w) != 0) {
 882              		.loc 1 449 0
 883 000c 0DF10602 		add	r2, sp, #6
 884              	.LVL102:
 885 0010 FFF7FEFF 		bl	I2Cdev_readWord
 886              	.LVL103:
 887 0014 B0B1     		cbz	r0, .L51
 888              	.LBB7:
 450:.\I2Cdev/I2Cdev.c ****         uint16_t mask = ((1 << length) - 1) << (bitStart - length + 1);
 889              		.loc 1 450 0
 890 0016 0121     		movs	r1, #1
 891 0018 B940     		lsls	r1, r1, r7
 892 001a 0139     		subs	r1, r1, #1
 893 001c E41B     		subs	r4, r4, r7
 894 001e 0134     		adds	r4, r4, #1
 895 0020 A140     		lsls	r1, r1, r4
 896              	.LVL104:
 451:.\I2Cdev/I2Cdev.c ****         data <<= (bitStart - length + 1); // shift data into correct position
 897              		.loc 1 451 0
 898 0022 BDF82030 		ldrh	r3, [sp, #32]
 899 0026 A340     		lsls	r3, r3, r4
 900 0028 9BB2     		uxth	r3, r3
 901              	.LVL105:
 452:.\I2Cdev/I2Cdev.c ****         data &= mask; // zero all non-important bits in data
 902              		.loc 1 452 0
 903 002a 0B40     		ands	r3, r3, r1
 904              	.LVL106:
 453:.\I2Cdev/I2Cdev.c ****         w &= ~(mask); // zero all important bits in existing word
 905              		.loc 1 453 0
 906 002c BDF80620 		ldrh	r2, [sp, #6]
 907 0030 22EA0102 		bic	r2, r2, r1
 454:.\I2Cdev/I2Cdev.c ****         w |= data; // combine data with existing word
 908              		.loc 1 454 0
 909 0034 1A43     		orrs	r2, r2, r3
 910 0036 ADF80620 		strh	r2, [sp, #6]	@ movhi
ARM GAS  C:\Users\satomin\AppData\Local\Temp\ccpt0mD2.s 			page 25


 455:.\I2Cdev/I2Cdev.c ****         return I2Cdev_writeWord(devAddr, regAddr, w);
 911              		.loc 1 455 0
 912 003a 3046     		mov	r0, r6
 913 003c 2946     		mov	r1, r5
 914              	.LVL107:
 915 003e FFF7FEFF 		bl	I2Cdev_writeWord
 916              	.LVL108:
 917 0042 00E0     		b	.L50
 918              	.LVL109:
 919              	.L51:
 920              	.LBE7:
 456:.\I2Cdev/I2Cdev.c ****     } else {
 457:.\I2Cdev/I2Cdev.c ****         return false;
 921              		.loc 1 457 0
 922 0044 0020     		movs	r0, #0
 923              	.LVL110:
 924              	.L50:
 458:.\I2Cdev/I2Cdev.c ****     }
 459:.\I2Cdev/I2Cdev.c **** }
 925              		.loc 1 459 0
 926 0046 03B0     		add	sp, sp, #12
 927              		.cfi_def_cfa_offset 20
 928              		@ sp needed
 929 0048 F0BD     		pop	{r4, r5, r6, r7, pc}
 930              		.cfi_endproc
 931              	.LFE78:
 932              		.size	I2Cdev_writeBitsW, .-I2Cdev_writeBitsW
 933 004a 00BF     		.text
 934              	.Letext0:
 935              		.file 2 "c:\\program files (x86)\\cypress\\psoc creator\\3.3\\psoc creator\\import\\gnu\\arm\\4.9.
 936              		.file 3 "c:\\program files (x86)\\cypress\\psoc creator\\3.3\\psoc creator\\import\\gnu\\arm\\4.9.
 937              		.file 4 "Generated_Source\\PSoC5/cytypes.h"
 938              		.file 5 "Generated_Source\\PSoC5/I2C.h"
 939              		.file 6 "Generated_Source\\PSoC5/core_cm3.h"
 940              		.file 7 "c:\\program files (x86)\\cypress\\psoc creator\\3.3\\psoc creator\\import\\gnu\\arm\\4.9.