ARM GAS  C:\Users\satomin\AppData\Local\Temp\ccNlZCzd.s 			page 1


   1              		.syntax unified
   2              		.cpu cortex-m3
   3              		.fpu softvfp
   4              		.eabi_attribute 20, 1
   5              		.eabi_attribute 21, 1
   6              		.eabi_attribute 23, 3
   7              		.eabi_attribute 24, 1
   8              		.eabi_attribute 25, 1
   9              		.eabi_attribute 26, 1
  10              		.eabi_attribute 30, 1
  11              		.eabi_attribute 34, 1
  12              		.eabi_attribute 18, 4
  13              		.thumb
  14              		.file	"main.c"
  15              		.text
  16              	.Ltext0:
  17              		.cfi_sections	.debug_frame
  18              		.section	.text.isr_int,"ax",%progbits
  19              		.align	2
  20              		.global	isr_int
  21              		.thumb
  22              		.thumb_func
  23              		.type	isr_int, %function
  24              	isr_int:
  25              	.LFB63:
  26              		.file 1 ".\\main.c"
   1:.\main.c      **** /* ========================================
   2:.\main.c      ****  *
   3:.\main.c      ****  * Copyright YOUR COMPANY, THE YEAR
   4:.\main.c      ****  * All Rights Reserved
   5:.\main.c      ****  * UNPUBLISHED, LICENSED SOFTWARE.
   6:.\main.c      ****  *
   7:.\main.c      ****  * CONFIDENTIAL AND PROPRIETARY INFORMATION
   8:.\main.c      ****  * WHICH IS THE PROPERTY OF your company.
   9:.\main.c      ****  *
  10:.\main.c      ****  * ========================================
  11:.\main.c      **** */
  12:.\main.c      **** #include <project.h>
  13:.\main.c      **** #include <math.h>
  14:.\main.c      **** #include <stdint.h>
  15:.\main.c      **** #include <stdio.h>
  16:.\main.c      **** #include "MPU6050/MPU6050.h"
  17:.\main.c      **** #define duty 400
  18:.\main.c      **** #define Buffer_size 600
  19:.\main.c      **** #define Range_a 2
  20:.\main.c      **** #define Range_g 0
  21:.\main.c      **** int isr_flag = 0;
  22:.\main.c      **** CY_ISR(isr_int){
  27              		.loc 1 22 0
  28              		.cfi_startproc
  29              		@ args = 0, pretend = 0, frame = 0
  30              		@ frame_needed = 0, uses_anonymous_args = 0
  31              		@ link register save eliminated.
  23:.\main.c      ****     isr_flag = 1;
  32              		.loc 1 23 0
  33 0000 0122     		movs	r2, #1
  34 0002 014B     		ldr	r3, .L2
ARM GAS  C:\Users\satomin\AppData\Local\Temp\ccNlZCzd.s 			page 2


  35 0004 1A60     		str	r2, [r3]
  36 0006 7047     		bx	lr
  37              	.L3:
  38              		.align	2
  39              	.L2:
  40 0008 00000000 		.word	.LANCHOR0
  41              		.cfi_endproc
  42              	.LFE63:
  43              		.size	isr_int, .-isr_int
  44              		.section	.text.main,"ax",%progbits
  45              		.align	2
  46              		.global	main
  47              		.thumb
  48              		.thumb_func
  49              		.type	main, %function
  50              	main:
  51              	.LFB64:
  24:.\main.c      **** }
  25:.\main.c      **** int main()
  26:.\main.c      **** {
  52              		.loc 1 26 0
  53              		.cfi_startproc
  54              		@ args = 0, pretend = 0, frame = 32
  55              		@ frame_needed = 0, uses_anonymous_args = 0
  56 0000 30B5     		push	{r4, r5, lr}
  57              		.cfi_def_cfa_offset 12
  58              		.cfi_offset 4, -12
  59              		.cfi_offset 5, -8
  60              		.cfi_offset 14, -4
  61 0002 8BB0     		sub	sp, sp, #44
  62              		.cfi_def_cfa_offset 56
  63              	.LVL0:
  27:.\main.c      ****     // 変数
  28:.\main.c      ****     // uint16 pwr=130;
  29:.\main.c      **** 	uint8_t finish = 0;
  30:.\main.c      **** 	uint16_t i = 0,count = 0;
  31:.\main.c      **** 	int16_t buf_a[3][Buffer_size];
  32:.\main.c      **** 	int16_t buf_g[3][Buffer_size];
  33:.\main.c      **** 	int16_t difference_a[3][Buffer_size];
  34:.\main.c      **** 	int16_t difference_g[3][Buffer_size];
  35:.\main.c      **** 	int16_t filter_buf_a[3][Buffer_size];
  36:.\main.c      **** 	int16_t filter_buf_g[3][Buffer_size];
  37:.\main.c      ****     int16_t ax, ay, az, gx, gy, gz;
  38:.\main.c      ****     int16_t distance, sub_distance;
  39:.\main.c      ****     int16 cou = 0;
  40:.\main.c      ****     int16 SetValue = 0;  
  41:.\main.c      **** 	char rd[30];
  42:.\main.c      ****     
  43:.\main.c      ****     CyGlobalIntEnable; /* Enable global interrupts. */
  64              		.loc 1 43 0
  65              	@ 43 ".\main.c" 1
  66 0004 62B6     		CPSIE   i
  67              	@ 0 "" 2
  44:.\main.c      ****     // コンポーネット初期化
  45:.\main.c      ****     QuadDec_1_Start();
  68              		.loc 1 45 0
  69              		.thumb
ARM GAS  C:\Users\satomin\AppData\Local\Temp\ccNlZCzd.s 			page 3


  70 0006 FFF7FEFF 		bl	QuadDec_1_Start
  71              	.LVL1:
  46:.\main.c      ****     I2C_Start();
  72              		.loc 1 46 0
  73 000a FFF7FEFF 		bl	I2C_Start
  74              	.LVL2:
  47:.\main.c      **** 	CyDelay(3000);
  75              		.loc 1 47 0
  76 000e 40F6B830 		movw	r0, #3000
  77 0012 FFF7FEFF 		bl	CyDelay
  78              	.LVL3:
  48:.\main.c      ****     PWM_motor_Start();
  79              		.loc 1 48 0
  80 0016 FFF7FEFF 		bl	PWM_motor_Start
  81              	.LVL4:
  49:.\main.c      **** 	UART_1_Start();
  82              		.loc 1 49 0
  83 001a FFF7FEFF 		bl	UART_1_Start
  84              	.LVL5:
  50:.\main.c      ****     MPU6050(0x68);
  85              		.loc 1 50 0
  86 001e 6820     		movs	r0, #104
  87 0020 FFF7FEFF 		bl	MPU6050
  88              	.LVL6:
  51:.\main.c      ****     MPU6050_initialize();
  89              		.loc 1 51 0
  90 0024 FFF7FEFF 		bl	MPU6050_initialize
  91              	.LVL7:
  52:.\main.c      **** 	isr_flag_Start();
  92              		.loc 1 52 0
  93 0028 FFF7FEFF 		bl	isr_flag_Start
  94              	.LVL8:
  53:.\main.c      ****     isr_flag_StartEx(isr_int);
  95              		.loc 1 53 0
  96 002c 1A48     		ldr	r0, .L8
  97 002e FFF7FEFF 		bl	isr_flag_StartEx
  98              	.LVL9:
  54:.\main.c      **** 	MPU6050_setFullScaleAccelRange(Range_a);
  99              		.loc 1 54 0
 100 0032 0220     		movs	r0, #2
 101 0034 FFF7FEFF 		bl	MPU6050_setFullScaleAccelRange
 102              	.LVL10:
  55:.\main.c      **** 	MPU6050_setFullScaleGyroRange(Range_g);
 103              		.loc 1 55 0
 104 0038 0020     		movs	r0, #0
 105 003a FFF7FEFF 		bl	MPU6050_setFullScaleGyroRange
 106              	.LVL11:
  56:.\main.c      ****     MPU6050_getXAccelOffset();
 107              		.loc 1 56 0
 108 003e FFF7FEFF 		bl	MPU6050_getXAccelOffset
 109              	.LVL12:
  57:.\main.c      ****     MPU6050_getYAccelOffset();
 110              		.loc 1 57 0
 111 0042 FFF7FEFF 		bl	MPU6050_getYAccelOffset
 112              	.LVL13:
  58:.\main.c      ****     MPU6050_getZAccelOffset();
 113              		.loc 1 58 0
ARM GAS  C:\Users\satomin\AppData\Local\Temp\ccNlZCzd.s 			page 4


 114 0046 FFF7FEFF 		bl	MPU6050_getZAccelOffset
 115              	.LVL14:
  59:.\main.c      ****     MPU6050_getXGyroOffset();
 116              		.loc 1 59 0
 117 004a FFF7FEFF 		bl	MPU6050_getXGyroOffset
 118              	.LVL15:
  60:.\main.c      ****     MPU6050_getYGyroOffset();
 119              		.loc 1 60 0
 120 004e FFF7FEFF 		bl	MPU6050_getYGyroOffset
 121              	.LVL16:
  61:.\main.c      ****     MPU6050_getZGyroOffset();
 122              		.loc 1 61 0
 123 0052 FFF7FEFF 		bl	MPU6050_getZGyroOffset
 124              	.LVL17:
  62:.\main.c      ****     //ADC_SAR_Seq_Start();
  63:.\main.c      ****      ADC_SAR_Seq_Start();
 125              		.loc 1 63 0
 126 0056 FFF7FEFF 		bl	ADC_SAR_Seq_Start
 127              	.LVL18:
 128              	.L5:
  64:.\main.c      ****     // main
  65:.\main.c      **** 	while(1)
  66:.\main.c      **** 	{
  67:.\main.c      ****         
  68:.\main.c      **** 		if(isr_flag == 1)
 129              		.loc 1 68 0
 130 005a 104B     		ldr	r3, .L8+4
 131 005c 1B68     		ldr	r3, [r3]
 132 005e 012B     		cmp	r3, #1
 133 0060 FBD1     		bne	.L5
  69:.\main.c      **** 		{
  70:.\main.c      ****             // MPU6050の処理
  71:.\main.c      ****             // データゲット
  72:.\main.c      **** 			//MPU6050_getMotion6(&ax, &ay, &az, &gx, &gy, &gz);
  73:.\main.c      **** 			/*
  74:.\main.c      ****             // データの格納 
  75:.\main.c      **** 			buf_a[0][count] = ax;
  76:.\main.c      **** 			buf_a[1][count] = ay;
  77:.\main.c      **** 			buf_a[2][count] = az;
  78:.\main.c      **** 			
  79:.\main.c      **** 			buf_g[0][count] = gx;
  80:.\main.c      **** 			buf_g[1][count] = gy;
  81:.\main.c      **** 			buf_g[2][count] = gz;
  82:.\main.c      **** 			
  83:.\main.c      ****             // 差分データの確保
  84:.\main.c      **** 			if(count>0)
  85:.\main.c      **** 			{
  86:.\main.c      **** 				difference_a[0][count] = buf_a[0][count] - buf_a[0][count-1];
  87:.\main.c      **** 				difference_a[1][count] = buf_a[1][count] - buf_a[1][count-1];
  88:.\main.c      **** 				difference_a[2][count] = buf_a[2][count] - buf_a[2][count-1];
  89:.\main.c      **** 				difference_g[0][count] = buf_g[0][count] - buf_g[0][count-1];
  90:.\main.c      **** 				difference_g[1][count] = buf_g[1][count] - buf_g[1][count-1];
  91:.\main.c      **** 				difference_g[2][count] = buf_g[2][count] - buf_g[2][count-1];
  92:.\main.c      **** 			}
  93:.\main.c      **** 			*/
  94:.\main.c      **** 			
  95:.\main.c      **** 			// 出力
ARM GAS  C:\Users\satomin\AppData\Local\Temp\ccNlZCzd.s 			page 5


  96:.\main.c      **** 			//sprintf(rd,"%d,%d,%d,%d, %d ,%d \n",ax, ay, az, gx, gy, gz);			
  97:.\main.c      **** 			//UART_1_PutString(rd);
  98:.\main.c      ****             
  99:.\main.c      ****             /*
 100:.\main.c      ****             // 距離センサ
 101:.\main.c      ****            
 102:.\main.c      ****             //sub_distance = ADC_SAR_Seq_IsEndConversion(ADC_SAR_Seq_RETURN_STATUS);
 103:.\main.c      ****             
 104:.\main.c      ****             ADC_SAR_Seq_StartConvert();
 105:.\main.c      **** 			distance = ADC_SAR_Seq_GetResult16();
 106:.\main.c      ****            
 107:.\main.c      ****             sprintf(rd,"%d\n",distance);			
 108:.\main.c      **** 			UART_1_PutString(rd);
 109:.\main.c      ****             */
 110:.\main.c      ****             
 111:.\main.c      ****             // ロータリーエンコーダー
 112:.\main.c      ****             count = QuadDec_1_GetCounter();
 134              		.loc 1 112 0
 135 0062 FFF7FEFF 		bl	QuadDec_1_GetCounter
 136              	.LVL19:
 137 0066 85B2     		uxth	r5, r0
 138              	.LVL20:
 113:.\main.c      ****             if(cou == 100)  QuadDec_1_SetCounter(SetValue);
 114:.\main.c      ****             sprintf(rd,"A = %d B = %d  count = %d\n",in_A_Read(), in_B_Read(),count);
 139              		.loc 1 114 0
 140 0068 FFF7FEFF 		bl	in_A_Read
 141              	.LVL21:
 142 006c 0446     		mov	r4, r0
 143 006e FFF7FEFF 		bl	in_B_Read
 144              	.LVL22:
 145 0072 0346     		mov	r3, r0
 146 0074 0095     		str	r5, [sp]
 147 0076 02A8     		add	r0, sp, #8
 148 0078 0949     		ldr	r1, .L8+8
 149 007a 2246     		mov	r2, r4
 150 007c FFF7FEFF 		bl	sprintf
 151              	.LVL23:
 115:.\main.c      ****             UART_1_PutString(rd);
 152              		.loc 1 115 0
 153 0080 02A8     		add	r0, sp, #8
 154 0082 FFF7FEFF 		bl	UART_1_PutString
 155              	.LVL24:
 116:.\main.c      ****             
 117:.\main.c      ****             // PWM
 118:.\main.c      ****             PWM_motor_WriteCompare1(duty);
 156              		.loc 1 118 0
 157 0086 4FF4C870 		mov	r0, #400
 158 008a FFF7FEFF 		bl	PWM_motor_WriteCompare1
 159              	.LVL25:
 119:.\main.c      ****             // flag
 120:.\main.c      **** 			count++;
 121:.\main.c      **** 			isr_flag = 0;
 160              		.loc 1 121 0
 161 008e 0022     		movs	r2, #0
 162 0090 024B     		ldr	r3, .L8+4
 163 0092 1A60     		str	r2, [r3]
 164 0094 E1E7     		b	.L5
ARM GAS  C:\Users\satomin\AppData\Local\Temp\ccNlZCzd.s 			page 6


 165              	.L9:
 166 0096 00BF     		.align	2
 167              	.L8:
 168 0098 00000000 		.word	isr_int
 169 009c 00000000 		.word	.LANCHOR0
 170 00a0 00000000 		.word	.LC0
 171              		.cfi_endproc
 172              	.LFE64:
 173              		.size	main, .-main
 174              		.global	isr_flag
 175              		.section	.rodata.str1.4,"aMS",%progbits,1
 176              		.align	2
 177              	.LC0:
 178 0000 41203D20 		.ascii	"A = %d B = %d  count = %d\012\000"
 178      25642042 
 178      203D2025 
 178      64202063 
 178      6F756E74 
 179 001b 00       		.bss
 180              		.align	2
 181              		.set	.LANCHOR0,. + 0
 182              		.type	isr_flag, %object
 183              		.size	isr_flag, 4
 184              	isr_flag:
 185 0000 00000000 		.space	4
 186              		.text
 187              	.Letext0:
 188              		.file 2 "c:\\program files (x86)\\cypress\\psoc creator\\3.3\\psoc creator\\import\\gnu\\arm\\4.9.
 189              		.file 3 "c:\\program files (x86)\\cypress\\psoc creator\\3.3\\psoc creator\\import\\gnu\\arm\\4.9.
 190              		.file 4 "Generated_Source\\PSoC5/cytypes.h"
 191              		.file 5 "Generated_Source\\PSoC5/core_cm3.h"
 192              		.file 6 "Generated_Source\\PSoC5/QuadDec_1.h"
 193              		.file 7 "Generated_Source\\PSoC5/I2C.h"
 194              		.file 8 "Generated_Source\\PSoC5/PWM_motor.h"
 195              		.file 9 "Generated_Source\\PSoC5/UART_1.h"
 196              		.file 10 "Generated_Source\\PSoC5/CyLib.h"
 197              		.file 11 ".\\MPU6050/MPU6050.h"
 198              		.file 12 "Generated_Source\\PSoC5/isr_flag.h"
 199              		.file 13 "Generated_Source\\PSoC5/ADC_SAR_Seq.h"
 200              		.file 14 "Generated_Source\\PSoC5/in_A.h"
 201              		.file 15 "Generated_Source\\PSoC5/in_B.h"
 202              		.file 16 "c:\\program files (x86)\\cypress\\psoc creator\\3.3\\psoc creator\\import\\gnu\\arm\\4.9