ARM GAS  C:\Users\satomin\AppData\Local\Temp\cc6CMNA3.s 			page 1


   1              		.syntax unified
   2              		.cpu cortex-m3
   3              		.fpu softvfp
   4              		.eabi_attribute 20, 1
   5              		.eabi_attribute 21, 1
   6              		.eabi_attribute 23, 3
   7              		.eabi_attribute 24, 1
   8              		.eabi_attribute 25, 1
   9              		.eabi_attribute 26, 1
  10              		.eabi_attribute 30, 1
  11              		.eabi_attribute 34, 1
  12              		.eabi_attribute 18, 4
  13              		.thumb
  14              		.file	"main.c"
  15              		.text
  16              	.Ltext0:
  17              		.cfi_sections	.debug_frame
  18              		.section	.text.isr_int,"ax",%progbits
  19              		.align	2
  20              		.global	isr_int
  21              		.thumb
  22              		.thumb_func
  23              		.type	isr_int, %function
  24              	isr_int:
  25              	.LFB63:
  26              		.file 1 ".\\main.c"
   1:.\main.c      **** /* ========================================
   2:.\main.c      ****  *
   3:.\main.c      ****  * Copyright YOUR COMPANY, THE YEAR
   4:.\main.c      ****  * All Rights Reserved
   5:.\main.c      ****  * UNPUBLISHED, LICENSED SOFTWARE.
   6:.\main.c      ****  *
   7:.\main.c      ****  * CONFIDENTIAL AND PROPRIETARY INFORMATION
   8:.\main.c      ****  * WHICH IS THE PROPERTY OF your company.
   9:.\main.c      ****  *
  10:.\main.c      ****  * ========================================
  11:.\main.c      **** */
  12:.\main.c      **** #include <project.h>
  13:.\main.c      **** #include <math.h>
  14:.\main.c      **** #include <stdint.h>
  15:.\main.c      **** #include <stdio.h>
  16:.\main.c      **** #include "MPU6050/MPU6050.h"
  17:.\main.c      **** // duty 下は310？
  18:.\main.c      **** #define duty 380
  19:.\main.c      **** #define Buffer_size 1000
  20:.\main.c      **** #define Range_a 2
  21:.\main.c      **** #define Range_g 0
  22:.\main.c      **** int isr_flag = 0;
  23:.\main.c      **** CY_ISR(isr_int){
  27              		.loc 1 23 0
  28              		.cfi_startproc
  29              		@ args = 0, pretend = 0, frame = 0
  30              		@ frame_needed = 0, uses_anonymous_args = 0
  31              		@ link register save eliminated.
  24:.\main.c      ****     isr_flag = 1;
  32              		.loc 1 24 0
  33 0000 0122     		movs	r2, #1
ARM GAS  C:\Users\satomin\AppData\Local\Temp\cc6CMNA3.s 			page 2


  34 0002 014B     		ldr	r3, .L2
  35 0004 1A60     		str	r2, [r3]
  36 0006 7047     		bx	lr
  37              	.L3:
  38              		.align	2
  39              	.L2:
  40 0008 00000000 		.word	.LANCHOR0
  41              		.cfi_endproc
  42              	.LFE63:
  43              		.size	isr_int, .-isr_int
  44              		.section	.text.main,"ax",%progbits
  45              		.align	2
  46              		.global	main
  47              		.thumb
  48              		.thumb_func
  49              		.type	main, %function
  50              	main:
  51              	.LFB64:
  25:.\main.c      **** }
  26:.\main.c      **** int main()
  27:.\main.c      **** {
  52              		.loc 1 27 0
  53              		.cfi_startproc
  54              		@ args = 0, pretend = 0, frame = 14048
  55              		@ frame_needed = 0, uses_anonymous_args = 0
  56 0000 70B5     		push	{r4, r5, r6, lr}
  57              		.cfi_def_cfa_offset 16
  58              		.cfi_offset 4, -16
  59              		.cfi_offset 5, -12
  60              		.cfi_offset 6, -8
  61              		.cfi_offset 14, -4
  62 0002 ADF55B5D 		sub	sp, sp, #14016
  63              		.cfi_def_cfa_offset 14032
  64 0006 8AB0     		sub	sp, sp, #40
  65              		.cfi_def_cfa_offset 14072
  66              	.LVL0:
  28:.\main.c      ****     // 変数
  29:.\main.c      ****     // uint16 pwr=130;
  30:.\main.c      **** 	uint8_t finish = 0;
  31:.\main.c      **** 	uint16_t i = 0,count = 0;
  32:.\main.c      **** 	int16_t buf_a[3][Buffer_size];
  33:.\main.c      **** 	int16_t buf_g[3][Buffer_size];
  34:.\main.c      **** 	int16_t difference_a[3][Buffer_size];
  35:.\main.c      **** 	int16_t difference_g[3][Buffer_size];
  36:.\main.c      **** 	int16_t filter_buf_a[3][Buffer_size];
  37:.\main.c      **** 	int16_t filter_buf_g[3][Buffer_size];
  38:.\main.c      ****     int16_t kyori[Buffer_size];
  39:.\main.c      ****     int16_t ax, ay, az, gx, gy, gz;
  40:.\main.c      ****     int16_t distance1, distance2, sub_distance;
  41:.\main.c      ****     int16_t rori[Buffer_size];
  42:.\main.c      ****     int16 cou = 0;
  43:.\main.c      ****     int16 SetValue = 0;  
  44:.\main.c      **** 	char rd[30];
  45:.\main.c      ****     
  46:.\main.c      ****     CyGlobalIntEnable; /* Enable global interrupts. */
  67              		.loc 1 46 0
  68              	@ 46 ".\main.c" 1
ARM GAS  C:\Users\satomin\AppData\Local\Temp\cc6CMNA3.s 			page 3


  69 0008 62B6     		CPSIE   i
  70              	@ 0 "" 2
  47:.\main.c      ****     // コンポーネット初期化
  48:.\main.c      ****     QuadDec_1_Start();
  71              		.loc 1 48 0
  72              		.thumb
  73 000a FFF7FEFF 		bl	QuadDec_1_Start
  74              	.LVL1:
  49:.\main.c      ****     I2C_Start();
  75              		.loc 1 49 0
  76 000e FFF7FEFF 		bl	I2C_Start
  77              	.LVL2:
  50:.\main.c      **** 	CyDelay(3000);
  78              		.loc 1 50 0
  79 0012 40F6B830 		movw	r0, #3000
  80 0016 FFF7FEFF 		bl	CyDelay
  81              	.LVL3:
  51:.\main.c      ****     PWM_motor_Start();
  82              		.loc 1 51 0
  83 001a FFF7FEFF 		bl	PWM_motor_Start
  84              	.LVL4:
  52:.\main.c      **** 	UART_1_Start();
  85              		.loc 1 52 0
  86 001e FFF7FEFF 		bl	UART_1_Start
  87              	.LVL5:
  53:.\main.c      ****     MPU6050(0x68);
  88              		.loc 1 53 0
  89 0022 6820     		movs	r0, #104
  90 0024 FFF7FEFF 		bl	MPU6050
  91              	.LVL6:
  54:.\main.c      ****     MPU6050_initialize();
  92              		.loc 1 54 0
  93 0028 FFF7FEFF 		bl	MPU6050_initialize
  94              	.LVL7:
  55:.\main.c      **** 	isr_flag_Start();
  95              		.loc 1 55 0
  96 002c FFF7FEFF 		bl	isr_flag_Start
  97              	.LVL8:
  56:.\main.c      ****     isr_flag_StartEx(isr_int);
  98              		.loc 1 56 0
  99 0030 7448     		ldr	r0, .L26
 100 0032 FFF7FEFF 		bl	isr_flag_StartEx
 101              	.LVL9:
  57:.\main.c      **** 	MPU6050_setFullScaleAccelRange(Range_a);
 102              		.loc 1 57 0
 103 0036 0220     		movs	r0, #2
 104 0038 FFF7FEFF 		bl	MPU6050_setFullScaleAccelRange
 105              	.LVL10:
  58:.\main.c      **** 	MPU6050_setFullScaleGyroRange(Range_g);
 106              		.loc 1 58 0
 107 003c 0020     		movs	r0, #0
 108 003e FFF7FEFF 		bl	MPU6050_setFullScaleGyroRange
 109              	.LVL11:
  59:.\main.c      ****     MPU6050_getXAccelOffset();
 110              		.loc 1 59 0
 111 0042 FFF7FEFF 		bl	MPU6050_getXAccelOffset
 112              	.LVL12:
ARM GAS  C:\Users\satomin\AppData\Local\Temp\cc6CMNA3.s 			page 4


  60:.\main.c      ****     MPU6050_getYAccelOffset();
 113              		.loc 1 60 0
 114 0046 FFF7FEFF 		bl	MPU6050_getYAccelOffset
 115              	.LVL13:
  61:.\main.c      ****     MPU6050_getZAccelOffset();
 116              		.loc 1 61 0
 117 004a FFF7FEFF 		bl	MPU6050_getZAccelOffset
 118              	.LVL14:
  62:.\main.c      ****     MPU6050_getXGyroOffset();
 119              		.loc 1 62 0
 120 004e FFF7FEFF 		bl	MPU6050_getXGyroOffset
 121              	.LVL15:
  63:.\main.c      ****     MPU6050_getYGyroOffset();
 122              		.loc 1 63 0
 123 0052 FFF7FEFF 		bl	MPU6050_getYGyroOffset
 124              	.LVL16:
  64:.\main.c      ****     MPU6050_getZGyroOffset();
 125              		.loc 1 64 0
 126 0056 FFF7FEFF 		bl	MPU6050_getZGyroOffset
 127              	.LVL17:
  65:.\main.c      ****     ADC_SAR_Seq_Start();
 128              		.loc 1 65 0
 129 005a FFF7FEFF 		bl	ADC_SAR_Seq_Start
 130              	.LVL18:
  66:.\main.c      ****     PWM_motor_WriteCompare1(duty);
 131              		.loc 1 66 0
 132 005e 4FF4BE70 		mov	r0, #380
 133 0062 FFF7FEFF 		bl	PWM_motor_WriteCompare1
 134              	.LVL19:
  31:.\main.c      **** 	int16_t buf_a[3][Buffer_size];
 135              		.loc 1 31 0
 136 0066 0025     		movs	r5, #0
  67:.\main.c      ****     // main
  68:.\main.c      **** 	while(count != Buffer_size)
 137              		.loc 1 68 0
 138 0068 4AE0     		b	.L6
 139              	.LVL20:
 140              	.L8:
  69:.\main.c      ****     //while(true)
  70:.\main.c      ****     {
  71:.\main.c      ****         
  72:.\main.c      ****         
  73:.\main.c      **** 		if(isr_flag == 1)
 141              		.loc 1 73 0
 142 006a 674B     		ldr	r3, .L26+4
 143 006c 1B68     		ldr	r3, [r3]
 144 006e A4B2     		uxth	r4, r4
 145 0070 012B     		cmp	r3, #1
 146 0072 45D1     		bne	.L6
  74:.\main.c      **** 		{
  75:.\main.c      ****             // MPU6050の処理
  76:.\main.c      ****             // データゲット
  77:.\main.c      **** 		    MPU6050_getMotion6(&ax, &ay, &az, &gx, &gy, &gz);
 147              		.loc 1 77 0
 148 0074 0DF12E03 		add	r3, sp, #46
 149 0078 0093     		str	r3, [sp]
 150 007a 0BAB     		add	r3, sp, #44
ARM GAS  C:\Users\satomin\AppData\Local\Temp\cc6CMNA3.s 			page 5


 151 007c 0193     		str	r3, [sp, #4]
 152 007e 1AAB     		add	r3, sp, #104
 153 0080 0DF13600 		add	r0, sp, #54
 154 0084 A3F13401 		sub	r1, r3, #52
 155 0088 A3F13602 		sub	r2, r3, #54
 156 008c 383B     		subs	r3, r3, #56
 157 008e FFF7FEFF 		bl	MPU6050_getMotion6
 158              	.LVL21:
  78:.\main.c      **** 			
  79:.\main.c      ****             // データの格納 
  80:.\main.c      **** 			buf_a[0][count] = ax;
 159              		.loc 1 80 0
 160 0092 0DF5FB51 		add	r1, sp, #8032
 161 0096 1831     		adds	r1, r1, #24
 162 0098 BDF83630 		ldrh	r3, [sp, #54]
 163 009c 21F81530 		strh	r3, [r1, r5, lsl #1]	@ movhi
  81:.\main.c      **** 			buf_a[1][count] = ay;
 164              		.loc 1 81 0
 165 00a0 05F57A72 		add	r2, r5, #1000
 166 00a4 BDF83430 		ldrh	r3, [sp, #52]
 167 00a8 21F81230 		strh	r3, [r1, r2, lsl #1]	@ movhi
  82:.\main.c      **** 			buf_a[2][count] = az;
 168              		.loc 1 82 0
 169 00ac 05F5FA63 		add	r3, r5, #2000
 170 00b0 BDF83200 		ldrh	r0, [sp, #50]
 171 00b4 21F81300 		strh	r0, [r1, r3, lsl #1]	@ movhi
  83:.\main.c      **** 			
  84:.\main.c      **** 			buf_g[0][count] = gx;
 172              		.loc 1 84 0
 173 00b8 0DF60801 		addw	r1, sp, #2056
 174 00bc BDF83000 		ldrh	r0, [sp, #48]
 175 00c0 21F81500 		strh	r0, [r1, r5, lsl #1]	@ movhi
  85:.\main.c      **** 			buf_g[1][count] = gy;
 176              		.loc 1 85 0
 177 00c4 BDF82E00 		ldrh	r0, [sp, #46]
 178 00c8 21F81200 		strh	r0, [r1, r2, lsl #1]	@ movhi
  86:.\main.c      **** 			buf_g[2][count] = gz;
 179              		.loc 1 86 0
 180 00cc BDF82C20 		ldrh	r2, [sp, #44]
 181 00d0 21F81320 		strh	r2, [r1, r3, lsl #1]	@ movhi
  87:.\main.c      **** 			
  88:.\main.c      ****             // 差分データの確保
  89:.\main.c      **** 			/*
  90:.\main.c      ****             if(count>0)
  91:.\main.c      **** 			{
  92:.\main.c      **** 				difference_a[0][count] = buf_a[0][count] - buf_a[0][count-1];
  93:.\main.c      **** 				difference_a[1][count] = buf_a[1][count] - buf_a[1][count-1];
  94:.\main.c      **** 				difference_a[2][count] = buf_a[2][count] - buf_a[2][count-1];
  95:.\main.c      **** 				difference_g[0][count] = buf_g[0][count] - buf_g[0][count-1];
  96:.\main.c      **** 				difference_g[1][count] = buf_g[1][count] - buf_g[1][count-1];
  97:.\main.c      **** 				difference_g[2][count] = buf_g[2][count] - buf_g[2][count-1];
  98:.\main.c      **** 			}
  99:.\main.c      **** 			*/
 100:.\main.c      **** 			
 101:.\main.c      **** 			// 出力
 102:.\main.c      **** 			//sprintf(rd,"%d,%d,%d,%d, %d ,%d \n",ax, ay, az, gx, gy, gz);			
 103:.\main.c      **** 			//UART_1_PutString(rd);
ARM GAS  C:\Users\satomin\AppData\Local\Temp\cc6CMNA3.s 			page 6


 104:.\main.c      ****             
 105:.\main.c      ****             
 106:.\main.c      ****             // 距離センサ
 107:.\main.c      ****            
 108:.\main.c      ****             //sub_distance = ADC_SAR_Seq_IsEndConversion(ADC_SAR_Seq_RETURN_STATUS);
 109:.\main.c      ****             
 110:.\main.c      ****             ADC_SAR_Seq_StartConvert();
 182              		.loc 1 110 0
 183 00d4 FFF7FEFF 		bl	ADC_SAR_Seq_StartConvert
 184              	.LVL22:
 111:.\main.c      **** 			//kyori[count] = ADC_SAR_Seq_GetResult16();
 112:.\main.c      ****             distance2 = distance1;
 113:.\main.c      ****             distance1 = ADC_SAR_Seq_GetResult16();
 185              		.loc 1 113 0
 186 00d8 FFF7FEFF 		bl	ADC_SAR_Seq_GetResult16
 187              	.LVL23:
 188 00dc 0646     		mov	r6, r0
 189              	.LVL24:
 114:.\main.c      ****             sub_distance = distance2 - distance1;
 190              		.loc 1 114 0
 191 00de 241A     		subs	r4, r4, r0
 192              	.LVL25:
 115:.\main.c      ****             kyori[count] = sub_distance;
 193              		.loc 1 115 0
 194 00e0 0EAB     		add	r3, sp, #56
 195 00e2 23F81540 		strh	r4, [r3, r5, lsl #1]	@ movhi
 116:.\main.c      ****             //sprintf(rd,"%d\n",sub_distance);			
 117:.\main.c      **** 			//UART_1_PutString(rd);
 118:.\main.c      ****             
 119:.\main.c      ****             
 120:.\main.c      ****             // ロータリーエンコーダー
 121:.\main.c      ****             
 122:.\main.c      ****             cou = QuadDec_1_GetCounter();
 196              		.loc 1 122 0
 197 00e6 FFF7FEFF 		bl	QuadDec_1_GetCounter
 198              	.LVL26:
 123:.\main.c      ****             if(count == 10)  QuadDec_1_SetCounter(SetValue);
 199              		.loc 1 123 0
 200 00ea 0A2D     		cmp	r5, #10
 201 00ec 02D1     		bne	.L7
 202              		.loc 1 123 0 is_stmt 0 discriminator 1
 203 00ee 0020     		movs	r0, #0
 204 00f0 FFF7FEFF 		bl	QuadDec_1_SetCounter
 205              	.LVL27:
 206              	.L7:
 124:.\main.c      ****             //sprintf(rd,"A = %d B = %d  count = %d\n",in_A_Read(), in_B_Read(),cou);
 125:.\main.c      ****             //UART_1_PutString(rd);
 126:.\main.c      ****             
 127:.\main.c      ****             
 128:.\main.c      ****             
 129:.\main.c      ****             
 130:.\main.c      ****             // flag
 131:.\main.c      **** 			count++;
 207              		.loc 1 131 0 is_stmt 1
 208 00f4 0135     		adds	r5, r5, #1
 209              	.LVL28:
 210 00f6 ADB2     		uxth	r5, r5
ARM GAS  C:\Users\satomin\AppData\Local\Temp\cc6CMNA3.s 			page 7


 211              	.LVL29:
 132:.\main.c      **** 			isr_flag = 0;
 212              		.loc 1 132 0
 213 00f8 0022     		movs	r2, #0
 214 00fa 434B     		ldr	r3, .L26+4
 215 00fc 1A60     		str	r2, [r3]
 113:.\main.c      ****             sub_distance = distance2 - distance1;
 216              		.loc 1 113 0
 217 00fe 3446     		mov	r4, r6
 218              	.LVL30:
 219              	.L6:
  68:.\main.c      ****     //while(true)
 220              		.loc 1 68 0
 221 0100 B5F57A7F 		cmp	r5, #1000
 222 0104 B1D1     		bne	.L8
 133:.\main.c      **** 		}
 134:.\main.c      **** 	}
 135:.\main.c      ****     PWM_motor_WriteCompare1(0);
 223              		.loc 1 135 0
 224 0106 0020     		movs	r0, #0
 225 0108 FFF7FEFF 		bl	PWM_motor_WriteCompare1
 226              	.LVL31:
 227              	.L10:
 136:.\main.c      ****     // a
 137:.\main.c      ****     while(1)
 138:.\main.c      ****     {
 139:.\main.c      ****          if(SW_Read() == 0) 
 228              		.loc 1 139 0
 229 010c FFF7FEFF 		bl	SW_Read
 230              	.LVL32:
 231 0110 0028     		cmp	r0, #0
 232 0112 FBD1     		bne	.L10
 233 0114 16E0     		b	.L21
 234              	.LVL33:
 235              	.L11:
 236              	.LBB2:
 140:.\main.c      ****         {
 141:.\main.c      ****             int i;
 142:.\main.c      ****             int j;
 143:.\main.c      ****             
 144:.\main.c      ****         for(i = 0; i < Buffer_size; i++){
 145:.\main.c      ****             sprintf(rd,"%d \t %d \t %d \n", buf_a[0][i], buf_a[1][i], buf_a[2][i]);			
 237              		.loc 1 145 0 discriminator 3
 238 0116 0DF5FB51 		add	r1, sp, #8032
 239 011a 1831     		adds	r1, r1, #24
 240 011c 04F57A73 		add	r3, r4, #1000
 241 0120 04F5FA60 		add	r0, r4, #2000
 242 0124 31F91420 		ldrsh	r2, [r1, r4, lsl #1]
 243 0128 31F91330 		ldrsh	r3, [r1, r3, lsl #1]
 244 012c 31F91010 		ldrsh	r1, [r1, r0, lsl #1]
 245 0130 0091     		str	r1, [sp]
 246 0132 03A8     		add	r0, sp, #12
 247 0134 3549     		ldr	r1, .L26+8
 248 0136 FFF7FEFF 		bl	sprintf
 249              	.LVL34:
 146:.\main.c      **** 		    UART_1_PutString(rd);
 250              		.loc 1 146 0 discriminator 3
ARM GAS  C:\Users\satomin\AppData\Local\Temp\cc6CMNA3.s 			page 8


 251 013a 03A8     		add	r0, sp, #12
 252 013c FFF7FEFF 		bl	UART_1_PutString
 253              	.LVL35:
 144:.\main.c      ****             sprintf(rd,"%d \t %d \t %d \n", buf_a[0][i], buf_a[1][i], buf_a[2][i]);			
 254              		.loc 1 144 0 discriminator 3
 255 0140 0134     		adds	r4, r4, #1
 256              	.LVL36:
 257 0142 00E0     		b	.L9
 258              	.LVL37:
 259              	.L21:
 260              	.LBE2:
 261 0144 0024     		movs	r4, #0
 262              	.LVL38:
 263              	.L9:
 264              	.LBB3:
 144:.\main.c      ****             sprintf(rd,"%d \t %d \t %d \n", buf_a[0][i], buf_a[1][i], buf_a[2][i]);			
 265              		.loc 1 144 0 is_stmt 0 discriminator 1
 266 0146 B4F57A7F 		cmp	r4, #1000
 267 014a E4DB     		blt	.L11
 147:.\main.c      ****         }
 148:.\main.c      ****         UART_1_PutString("\n");
 268              		.loc 1 148 0 is_stmt 1
 269 014c 304C     		ldr	r4, .L26+12
 270              	.LVL39:
 271 014e 2046     		mov	r0, r4
 272 0150 FFF7FEFF 		bl	UART_1_PutString
 273              	.LVL40:
 274              	.LBE3:
 149:.\main.c      ****         break;
 150:.\main.c      ****         }
 151:.\main.c      ****     }
 152:.\main.c      ****     
 153:.\main.c      ****     UART_1_PutString("\n");
 275              		.loc 1 153 0
 276 0154 2046     		mov	r0, r4
 277 0156 FFF7FEFF 		bl	UART_1_PutString
 278              	.LVL41:
 279              	.L13:
 154:.\main.c      ****     // g
 155:.\main.c      ****     while(1)
 156:.\main.c      ****     {
 157:.\main.c      ****          if(SW_Read() == 0) 
 280              		.loc 1 157 0
 281 015a FFF7FEFF 		bl	SW_Read
 282              	.LVL42:
 283 015e 0028     		cmp	r0, #0
 284 0160 FBD1     		bne	.L13
 285 0162 15E0     		b	.L22
 286              	.LVL43:
 287              	.L14:
 288              	.LBB4:
 158:.\main.c      ****         {
 159:.\main.c      ****             int i;
 160:.\main.c      ****             int j;    
 161:.\main.c      ****             for(i = 0; i < Buffer_size; i++){
 162:.\main.c      ****                 sprintf(rd,"%d \t %d \t %d \n", buf_g[0][i], buf_g[1][i], buf_g[2][i]);			
 289              		.loc 1 162 0 discriminator 3
ARM GAS  C:\Users\satomin\AppData\Local\Temp\cc6CMNA3.s 			page 9


 290 0164 0DF60801 		addw	r1, sp, #2056
 291 0168 04F57A73 		add	r3, r4, #1000
 292 016c 04F5FA60 		add	r0, r4, #2000
 293 0170 31F91420 		ldrsh	r2, [r1, r4, lsl #1]
 294 0174 31F91330 		ldrsh	r3, [r1, r3, lsl #1]
 295 0178 31F91010 		ldrsh	r1, [r1, r0, lsl #1]
 296 017c 0091     		str	r1, [sp]
 297 017e 03A8     		add	r0, sp, #12
 298 0180 2249     		ldr	r1, .L26+8
 299 0182 FFF7FEFF 		bl	sprintf
 300              	.LVL44:
 163:.\main.c      ****     		    UART_1_PutString(rd);
 301              		.loc 1 163 0 discriminator 3
 302 0186 03A8     		add	r0, sp, #12
 303 0188 FFF7FEFF 		bl	UART_1_PutString
 304              	.LVL45:
 161:.\main.c      ****                 sprintf(rd,"%d \t %d \t %d \n", buf_g[0][i], buf_g[1][i], buf_g[2][i]);			
 305              		.loc 1 161 0 discriminator 3
 306 018c 0134     		adds	r4, r4, #1
 307              	.LVL46:
 308 018e 00E0     		b	.L12
 309              	.LVL47:
 310              	.L22:
 311              	.LBE4:
 312 0190 0024     		movs	r4, #0
 313              	.L12:
 314              	.LVL48:
 315              	.LBB5:
 161:.\main.c      ****                 sprintf(rd,"%d \t %d \t %d \n", buf_g[0][i], buf_g[1][i], buf_g[2][i]);			
 316              		.loc 1 161 0 is_stmt 0 discriminator 1
 317 0192 B4F57A7F 		cmp	r4, #1000
 318 0196 E5DB     		blt	.L14
 164:.\main.c      ****             }
 165:.\main.c      ****             UART_1_PutString("\n");
 319              		.loc 1 165 0 is_stmt 1
 320 0198 1D4C     		ldr	r4, .L26+12
 321              	.LVL49:
 322 019a 2046     		mov	r0, r4
 323 019c FFF7FEFF 		bl	UART_1_PutString
 324              	.LVL50:
 325              	.LBE5:
 166:.\main.c      ****             break;
 167:.\main.c      ****         }
 168:.\main.c      ****     }
 169:.\main.c      ****      UART_1_PutString("\n");
 326              		.loc 1 169 0
 327 01a0 2046     		mov	r0, r4
 328 01a2 FFF7FEFF 		bl	UART_1_PutString
 329              	.LVL51:
 330              	.L16:
 170:.\main.c      ****      // kyori
 171:.\main.c      ****      while(1)
 172:.\main.c      ****      {
 173:.\main.c      ****          if(SW_Read() == 0) 
 331              		.loc 1 173 0
 332 01a6 FFF7FEFF 		bl	SW_Read
 333              	.LVL52:
ARM GAS  C:\Users\satomin\AppData\Local\Temp\cc6CMNA3.s 			page 10


 334 01aa 0028     		cmp	r0, #0
 335 01ac FBD1     		bne	.L16
 336 01ae 0BE0     		b	.L23
 337              	.LVL53:
 338              	.L17:
 339              	.LBB6:
 174:.\main.c      ****         {
 175:.\main.c      ****             int i;
 176:.\main.c      ****             int j;
 177:.\main.c      ****             for(i = 0; i < Buffer_size; i++){
 178:.\main.c      ****                 sprintf(rd,"%d\n", kyori[i]);			
 340              		.loc 1 178 0 discriminator 3
 341 01b0 03A8     		add	r0, sp, #12
 342 01b2 1849     		ldr	r1, .L26+16
 343 01b4 0EAB     		add	r3, sp, #56
 344 01b6 33F91420 		ldrsh	r2, [r3, r4, lsl #1]
 345 01ba FFF7FEFF 		bl	sprintf
 346              	.LVL54:
 179:.\main.c      ****     		    UART_1_PutString(rd);
 347              		.loc 1 179 0 discriminator 3
 348 01be 03A8     		add	r0, sp, #12
 349 01c0 FFF7FEFF 		bl	UART_1_PutString
 350              	.LVL55:
 177:.\main.c      ****                 sprintf(rd,"%d\n", kyori[i]);			
 351              		.loc 1 177 0 discriminator 3
 352 01c4 0134     		adds	r4, r4, #1
 353              	.LVL56:
 354 01c6 00E0     		b	.L15
 355              	.LVL57:
 356              	.L23:
 357              	.LBE6:
 358 01c8 0024     		movs	r4, #0
 359              	.L15:
 360              	.LVL58:
 361              	.LBB7:
 177:.\main.c      ****                 sprintf(rd,"%d\n", kyori[i]);			
 362              		.loc 1 177 0 is_stmt 0 discriminator 1
 363 01ca B4F57A7F 		cmp	r4, #1000
 364 01ce EFDB     		blt	.L17
 365              	.L19:
 366              	.LBE7:
 180:.\main.c      ****             }    
 181:.\main.c      ****             break;
 182:.\main.c      ****         }
 183:.\main.c      ****     }
 184:.\main.c      ****     
 185:.\main.c      ****     // rori
 186:.\main.c      ****      while(1)
 187:.\main.c      ****      {
 188:.\main.c      ****          if(SW_Read() == 0) 
 367              		.loc 1 188 0 is_stmt 1
 368 01d0 FFF7FEFF 		bl	SW_Read
 369              	.LVL59:
 370 01d4 0028     		cmp	r0, #0
 371 01d6 FBD1     		bne	.L19
 372 01d8 0BE0     		b	.L24
 373              	.LVL60:
ARM GAS  C:\Users\satomin\AppData\Local\Temp\cc6CMNA3.s 			page 11


 374              	.L20:
 375              	.LBB8:
 189:.\main.c      ****         {
 190:.\main.c      ****             int i;
 191:.\main.c      ****             int j;
 192:.\main.c      ****             for(i = 0; i < Buffer_size; i++){
 193:.\main.c      ****                 sprintf(rd,"%d\n", kyori[i]);			
 376              		.loc 1 193 0 discriminator 3
 377 01da 03A8     		add	r0, sp, #12
 378 01dc 0D49     		ldr	r1, .L26+16
 379 01de 0EAB     		add	r3, sp, #56
 380 01e0 33F91420 		ldrsh	r2, [r3, r4, lsl #1]
 381 01e4 FFF7FEFF 		bl	sprintf
 382              	.LVL61:
 194:.\main.c      ****     		    UART_1_PutString(rd);
 383              		.loc 1 194 0 discriminator 3
 384 01e8 03A8     		add	r0, sp, #12
 385 01ea FFF7FEFF 		bl	UART_1_PutString
 386              	.LVL62:
 192:.\main.c      ****                 sprintf(rd,"%d\n", kyori[i]);			
 387              		.loc 1 192 0 discriminator 3
 388 01ee 0134     		adds	r4, r4, #1
 389              	.LVL63:
 390 01f0 00E0     		b	.L18
 391              	.LVL64:
 392              	.L24:
 393              	.LBE8:
 394 01f2 0024     		movs	r4, #0
 395              	.LVL65:
 396              	.L18:
 397              	.LBB9:
 192:.\main.c      ****                 sprintf(rd,"%d\n", kyori[i]);			
 398              		.loc 1 192 0 is_stmt 0 discriminator 1
 399 01f4 B4F57A7F 		cmp	r4, #1000
 400 01f8 EFDB     		blt	.L20
 401              	.LBE9:
 195:.\main.c      ****             }    
 196:.\main.c      ****             break;
 197:.\main.c      ****         }
 198:.\main.c      ****     }
 199:.\main.c      ****     
 200:.\main.c      **** }
 402              		.loc 1 200 0 is_stmt 1 discriminator 1
 403 01fa 0020     		movs	r0, #0
 404 01fc 0DF55B5D 		add	sp, sp, #14016
 405 0200 0AB0     		add	sp, sp, #40
 406              		.cfi_def_cfa_offset 16
 407              		@ sp needed
 408 0202 70BD     		pop	{r4, r5, r6, pc}
 409              	.LVL66:
 410              	.L27:
 411              		.align	2
 412              	.L26:
 413 0204 00000000 		.word	isr_int
 414 0208 00000000 		.word	.LANCHOR0
 415 020c 00000000 		.word	.LC0
 416 0210 10000000 		.word	.LC1
ARM GAS  C:\Users\satomin\AppData\Local\Temp\cc6CMNA3.s 			page 12


 417 0214 14000000 		.word	.LC2
 418              		.cfi_endproc
 419              	.LFE64:
 420              		.size	main, .-main
 421              		.global	isr_flag
 422              		.section	.rodata.str1.4,"aMS",%progbits,1
 423              		.align	2
 424              	.LC0:
 425 0000 25642009 		.ascii	"%d \011 %d \011 %d \012\000"
 425      20256420 
 425      09202564 
 425      200A00
 426 000f 00       		.space	1
 427              	.LC1:
 428 0010 0A00     		.ascii	"\012\000"
 429 0012 0000     		.space	2
 430              	.LC2:
 431 0014 25640A00 		.ascii	"%d\012\000"
 432              		.bss
 433              		.align	2
 434              		.set	.LANCHOR0,. + 0
 435              		.type	isr_flag, %object
 436              		.size	isr_flag, 4
 437              	isr_flag:
 438 0000 00000000 		.space	4
 439              		.text
 440              	.Letext0:
 441              		.file 2 "c:\\program files (x86)\\cypress\\psoc creator\\3.3\\psoc creator\\import\\gnu\\arm\\4.9.
 442              		.file 3 "c:\\program files (x86)\\cypress\\psoc creator\\3.3\\psoc creator\\import\\gnu\\arm\\4.9.
 443              		.file 4 "Generated_Source\\PSoC5/cytypes.h"
 444              		.file 5 "Generated_Source\\PSoC5/core_cm3.h"
 445              		.file 6 "Generated_Source\\PSoC5/QuadDec_1.h"
 446              		.file 7 "Generated_Source\\PSoC5/I2C.h"
 447              		.file 8 "Generated_Source\\PSoC5/UART_1.h"
 448              		.file 9 "Generated_Source\\PSoC5/CyLib.h"
 449              		.file 10 "Generated_Source\\PSoC5/PWM_motor.h"
 450              		.file 11 ".\\MPU6050/MPU6050.h"
 451              		.file 12 "Generated_Source\\PSoC5/isr_flag.h"
 452              		.file 13 "Generated_Source\\PSoC5/ADC_SAR_Seq.h"
 453              		.file 14 "Generated_Source\\PSoC5/SW.h"
 454              		.file 15 "c:\\program files (x86)\\cypress\\psoc creator\\3.3\\psoc creator\\import\\gnu\\arm\\4.9