ARM GAS  C:\Users\satomin\AppData\Local\Temp\ccS6UKJQ.s 			page 1


   1              		.syntax unified
   2              		.cpu cortex-m3
   3              		.fpu softvfp
   4              		.eabi_attribute 20, 1
   5              		.eabi_attribute 21, 1
   6              		.eabi_attribute 23, 3
   7              		.eabi_attribute 24, 1
   8              		.eabi_attribute 25, 1
   9              		.eabi_attribute 26, 1
  10              		.eabi_attribute 30, 1
  11              		.eabi_attribute 34, 1
  12              		.eabi_attribute 18, 4
  13              		.thumb
  14              		.file	"MPU6050.c"
  15              		.text
  16              	.Ltext0:
  17              		.cfi_sections	.debug_frame
  18              		.section	.text.MPU6050,"ax",%progbits
  19              		.align	2
  20              		.global	MPU6050
  21              		.thumb
  22              		.thumb_func
  23              		.type	MPU6050, %function
  24              	MPU6050:
  25              	.LFB63:
  26              		.file 1 ".\\MPU6050\\MPU6050.c"
   1:.\MPU6050/MPU6050.c **** // I2Cdev library collection - MPU6050 I2C device class
   2:.\MPU6050/MPU6050.c **** // Based on InvenSense MPU-6050 register map document rev. 2.0, 5/19/2011 (RM-MPU-6000A-00)
   3:.\MPU6050/MPU6050.c **** // 8/24/2011 by Jeff Rowberg <jeff@rowberg.net>
   4:.\MPU6050/MPU6050.c **** // 11/28/2014 by Marton Sebok <sebokmarton@gmail.com>
   5:.\MPU6050/MPU6050.c **** //
   6:.\MPU6050/MPU6050.c **** // Updates should (hopefully) always be available at https://github.com/jrowberg/i2cdevlib
   7:.\MPU6050/MPU6050.c **** //
   8:.\MPU6050/MPU6050.c **** // Changelog:
   9:.\MPU6050/MPU6050.c **** //     ...        - ongoing debug release
  10:.\MPU6050/MPU6050.c **** //     2014-11-28 - ported to PIC18 peripheral library from Arduino code
  11:.\MPU6050/MPU6050.c **** 
  12:.\MPU6050/MPU6050.c **** // NOTE: THIS IS ONLY A PARIAL RELEASE. THIS DEVICE CLASS IS CURRENTLY UNDERGOING ACTIVE
  13:.\MPU6050/MPU6050.c **** // DEVELOPMENT AND IS STILL MISSING SOME IMPORTANT FEATURES. PLEASE KEEP THIS IN MIND IF
  14:.\MPU6050/MPU6050.c **** // YOU DECIDE TO USE THIS PARTICULAR CODE FOR ANYTHING.
  15:.\MPU6050/MPU6050.c **** 
  16:.\MPU6050/MPU6050.c **** /* ============================================
  17:.\MPU6050/MPU6050.c **** I2Cdev device library code is placed under the MIT license
  18:.\MPU6050/MPU6050.c **** Copyright (c) 2012 Jeff Rowberg
  19:.\MPU6050/MPU6050.c **** Copyright (c) 2014 Marton Sebok
  20:.\MPU6050/MPU6050.c **** 
  21:.\MPU6050/MPU6050.c **** Permission is hereby granted, free of charge, to any person obtaining a copy
  22:.\MPU6050/MPU6050.c **** of this software and associated documentation files (the "Software"), to deal
  23:.\MPU6050/MPU6050.c **** in the Software without restriction, including without limitation the rights
  24:.\MPU6050/MPU6050.c **** to use, copy, modify, merge, publish, distribute, sublicense, and/or sell
  25:.\MPU6050/MPU6050.c **** copies of the Software, and to permit persons to whom the Software is
  26:.\MPU6050/MPU6050.c **** furnished to do so, subject to the following conditions:
  27:.\MPU6050/MPU6050.c **** 
  28:.\MPU6050/MPU6050.c **** The above copyright notice and this permission notice shall be included in
  29:.\MPU6050/MPU6050.c **** all copies or substantial portions of the Software.
  30:.\MPU6050/MPU6050.c **** 
  31:.\MPU6050/MPU6050.c **** THE SOFTWARE IS PROVIDED "AS IS", WITHOUT WARRANTY OF ANY KIND, EXPRESS OR
ARM GAS  C:\Users\satomin\AppData\Local\Temp\ccS6UKJQ.s 			page 2


  32:.\MPU6050/MPU6050.c **** IMPLIED, INCLUDING BUT NOT LIMITED TO THE WARRANTIES OF MERCHANTABILITY,
  33:.\MPU6050/MPU6050.c **** FITNESS FOR A PARTICULAR PURPOSE AND NONINFRINGEMENT. IN NO EVENT SHALL THE
  34:.\MPU6050/MPU6050.c **** AUTHORS OR COPYRIGHT HOLDERS BE LIABLE FOR ANY CLAIM, DAMAGES OR OTHER
  35:.\MPU6050/MPU6050.c **** LIABILITY, WHETHER IN AN ACTION OF CONTRACT, TORT OR OTHERWISE, ARISING FROM,
  36:.\MPU6050/MPU6050.c **** OUT OF OR IN CONNECTION WITH THE SOFTWARE OR THE USE OR OTHER DEALINGS IN
  37:.\MPU6050/MPU6050.c **** THE SOFTWARE.
  38:.\MPU6050/MPU6050.c **** ===============================================
  39:.\MPU6050/MPU6050.c **** */
  40:.\MPU6050/MPU6050.c **** 
  41:.\MPU6050/MPU6050.c **** #include "MPU6050.h"
  42:.\MPU6050/MPU6050.c **** 
  43:.\MPU6050/MPU6050.c **** MPU6050_t mpu6050;
  44:.\MPU6050/MPU6050.c **** 
  45:.\MPU6050/MPU6050.c **** /** Specific address constructor.
  46:.\MPU6050/MPU6050.c ****  * @param address I2C address
  47:.\MPU6050/MPU6050.c ****  * @see MPU6050_DEFAULT_ADDRESS
  48:.\MPU6050/MPU6050.c ****  * @see MPU6050_ADDRESS_AD0_LOW
  49:.\MPU6050/MPU6050.c ****  * @see MPU6050_ADDRESS_AD0_HIGH
  50:.\MPU6050/MPU6050.c ****  */
  51:.\MPU6050/MPU6050.c **** void MPU6050(uint8_t address) {
  27              		.loc 1 51 0
  28              		.cfi_startproc
  29              		@ args = 0, pretend = 0, frame = 0
  30              		@ frame_needed = 0, uses_anonymous_args = 0
  31              		@ link register save eliminated.
  32              	.LVL0:
  52:.\MPU6050/MPU6050.c ****     mpu6050.devAddr = address;
  33              		.loc 1 52 0
  34 0000 014B     		ldr	r3, .L2
  35 0002 1870     		strb	r0, [r3]
  36 0004 7047     		bx	lr
  37              	.L3:
  38 0006 00BF     		.align	2
  39              	.L2:
  40 0008 00000000 		.word	mpu6050
  41              		.cfi_endproc
  42              	.LFE63:
  43              		.size	MPU6050, .-MPU6050
  44              		.section	.text.MPU6050_getAuxVDDIOLevel,"ax",%progbits
  45              		.align	2
  46              		.global	MPU6050_getAuxVDDIOLevel
  47              		.thumb
  48              		.thumb_func
  49              		.type	MPU6050_getAuxVDDIOLevel, %function
  50              	MPU6050_getAuxVDDIOLevel:
  51              	.LFB66:
  53:.\MPU6050/MPU6050.c **** }
  54:.\MPU6050/MPU6050.c **** 
  55:.\MPU6050/MPU6050.c **** /** Power on and prepare for general usage.
  56:.\MPU6050/MPU6050.c ****  * This will activate the device and take it out of sleep mode (which must be done
  57:.\MPU6050/MPU6050.c ****  * after start-up). This function also sets both the accelerometer and the gyroscope
  58:.\MPU6050/MPU6050.c ****  * to their most sensitive settings, namely +/- 2g and +/- 250 degrees/sec, and sets
  59:.\MPU6050/MPU6050.c ****  * the clock source to use the X Gyro for reference, which is slightly better than
  60:.\MPU6050/MPU6050.c ****  * the default internal clock source.
  61:.\MPU6050/MPU6050.c ****  */
  62:.\MPU6050/MPU6050.c **** void MPU6050_initialize() {
  63:.\MPU6050/MPU6050.c ****     MPU6050_setClockSource(MPU6050_CLOCK_PLL_XGYRO);
ARM GAS  C:\Users\satomin\AppData\Local\Temp\ccS6UKJQ.s 			page 3


  64:.\MPU6050/MPU6050.c ****     MPU6050_setFullScaleGyroRange(MPU6050_GYRO_FS_250);
  65:.\MPU6050/MPU6050.c ****     MPU6050_setFullScaleAccelRange(MPU6050_ACCEL_FS_2);
  66:.\MPU6050/MPU6050.c ****     MPU6050_setSleepEnabled(false); // thanks to Jack Elston for pointing this one out!
  67:.\MPU6050/MPU6050.c **** }
  68:.\MPU6050/MPU6050.c **** 
  69:.\MPU6050/MPU6050.c **** /** Verify the I2C connection.
  70:.\MPU6050/MPU6050.c ****  * Make sure the device is connected and responds as expected.
  71:.\MPU6050/MPU6050.c ****  * @return True if connection is valid, false otherwise
  72:.\MPU6050/MPU6050.c ****  */
  73:.\MPU6050/MPU6050.c **** bool MPU6050_testConnection() {
  74:.\MPU6050/MPU6050.c ****     return MPU6050_getDeviceID() == 0x34;
  75:.\MPU6050/MPU6050.c **** }
  76:.\MPU6050/MPU6050.c **** 
  77:.\MPU6050/MPU6050.c **** // AUX_VDDIO register (InvenSense demo code calls this RA_*G_OFFS_TC)
  78:.\MPU6050/MPU6050.c **** 
  79:.\MPU6050/MPU6050.c **** /** Get the auxiliary I2C supply voltage level.
  80:.\MPU6050/MPU6050.c ****  * When set to 1, the auxiliary I2C bus high logic level is VDD. When cleared to
  81:.\MPU6050/MPU6050.c ****  * 0, the auxiliary I2C bus high logic level is VLOGIC. This does not apply to
  82:.\MPU6050/MPU6050.c ****  * the MPU-6000, which does not have a VLOGIC pin.
  83:.\MPU6050/MPU6050.c ****  * @return I2C supply voltage level (0=VLOGIC, 1=VDD)
  84:.\MPU6050/MPU6050.c ****  */
  85:.\MPU6050/MPU6050.c **** uint8_t MPU6050_getAuxVDDIOLevel() {
  52              		.loc 1 85 0
  53              		.cfi_startproc
  54              		@ args = 0, pretend = 0, frame = 0
  55              		@ frame_needed = 0, uses_anonymous_args = 0
  56 0000 10B5     		push	{r4, lr}
  57              		.cfi_def_cfa_offset 8
  58              		.cfi_offset 4, -8
  59              		.cfi_offset 14, -4
  86:.\MPU6050/MPU6050.c ****     I2Cdev_readBit(mpu6050.devAddr, MPU6050_RA_YG_OFFS_TC, MPU6050_TC_PWR_MODE_BIT, mpu6050.buffer)
  60              		.loc 1 86 0
  61 0002 054C     		ldr	r4, .L6
  62 0004 2346     		mov	r3, r4
  63 0006 13F8010B 		ldrb	r0, [r3], #1	@ zero_extendqisi2
  64 000a 0121     		movs	r1, #1
  65 000c 0722     		movs	r2, #7
  66 000e FFF7FEFF 		bl	I2Cdev_readBit
  67              	.LVL1:
  87:.\MPU6050/MPU6050.c ****     return mpu6050.buffer[0];
  88:.\MPU6050/MPU6050.c **** }
  68              		.loc 1 88 0
  69 0012 6078     		ldrb	r0, [r4, #1]	@ zero_extendqisi2
  70 0014 10BD     		pop	{r4, pc}
  71              	.L7:
  72 0016 00BF     		.align	2
  73              	.L6:
  74 0018 00000000 		.word	mpu6050
  75              		.cfi_endproc
  76              	.LFE66:
  77              		.size	MPU6050_getAuxVDDIOLevel, .-MPU6050_getAuxVDDIOLevel
  78              		.section	.text.MPU6050_setAuxVDDIOLevel,"ax",%progbits
  79              		.align	2
  80              		.global	MPU6050_setAuxVDDIOLevel
  81              		.thumb
  82              		.thumb_func
  83              		.type	MPU6050_setAuxVDDIOLevel, %function
ARM GAS  C:\Users\satomin\AppData\Local\Temp\ccS6UKJQ.s 			page 4


  84              	MPU6050_setAuxVDDIOLevel:
  85              	.LFB67:
  89:.\MPU6050/MPU6050.c **** /** Set the auxiliary I2C supply voltage level.
  90:.\MPU6050/MPU6050.c ****  * When set to 1, the auxiliary I2C bus high logic level is VDD. When cleared to
  91:.\MPU6050/MPU6050.c ****  * 0, the auxiliary I2C bus high logic level is VLOGIC. This does not apply to
  92:.\MPU6050/MPU6050.c ****  * the MPU-6000, which does not have a VLOGIC pin.
  93:.\MPU6050/MPU6050.c ****  * @param level I2C supply voltage level (0=VLOGIC, 1=VDD)
  94:.\MPU6050/MPU6050.c ****  */
  95:.\MPU6050/MPU6050.c **** void MPU6050_setAuxVDDIOLevel(uint8_t level) {
  86              		.loc 1 95 0
  87              		.cfi_startproc
  88              		@ args = 0, pretend = 0, frame = 0
  89              		@ frame_needed = 0, uses_anonymous_args = 0
  90              	.LVL2:
  91 0000 08B5     		push	{r3, lr}
  92              		.cfi_def_cfa_offset 8
  93              		.cfi_offset 3, -8
  94              		.cfi_offset 14, -4
  95 0002 0346     		mov	r3, r0
  96:.\MPU6050/MPU6050.c ****     I2Cdev_writeBit(mpu6050.devAddr, MPU6050_RA_YG_OFFS_TC, MPU6050_TC_PWR_MODE_BIT, level);
  96              		.loc 1 96 0
  97 0004 034A     		ldr	r2, .L10
  98 0006 1078     		ldrb	r0, [r2]	@ zero_extendqisi2
  99              	.LVL3:
 100 0008 0121     		movs	r1, #1
 101 000a 0722     		movs	r2, #7
 102 000c FFF7FEFF 		bl	I2Cdev_writeBit
 103              	.LVL4:
 104 0010 08BD     		pop	{r3, pc}
 105              	.L11:
 106 0012 00BF     		.align	2
 107              	.L10:
 108 0014 00000000 		.word	mpu6050
 109              		.cfi_endproc
 110              	.LFE67:
 111              		.size	MPU6050_setAuxVDDIOLevel, .-MPU6050_setAuxVDDIOLevel
 112              		.section	.text.MPU6050_getRate,"ax",%progbits
 113              		.align	2
 114              		.global	MPU6050_getRate
 115              		.thumb
 116              		.thumb_func
 117              		.type	MPU6050_getRate, %function
 118              	MPU6050_getRate:
 119              	.LFB68:
  97:.\MPU6050/MPU6050.c **** }
  98:.\MPU6050/MPU6050.c **** 
  99:.\MPU6050/MPU6050.c **** // SMPLRT_DIV register
 100:.\MPU6050/MPU6050.c **** 
 101:.\MPU6050/MPU6050.c **** /** Get gyroscope output rate divider.
 102:.\MPU6050/MPU6050.c ****  * The sensor register output, FIFO output, DMP sampling, Motion detection, Zero
 103:.\MPU6050/MPU6050.c ****  * Motion detection, and Free Fall detection are all based on the Sample Rate.
 104:.\MPU6050/MPU6050.c ****  * The Sample Rate is generated by dividing the gyroscope output rate by
 105:.\MPU6050/MPU6050.c ****  * SMPLRT_DIV:
 106:.\MPU6050/MPU6050.c ****  *
 107:.\MPU6050/MPU6050.c ****  * Sample Rate = Gyroscope Output Rate / (1 + SMPLRT_DIV)
 108:.\MPU6050/MPU6050.c ****  *
 109:.\MPU6050/MPU6050.c ****  * where Gyroscope Output Rate = 8kHz when the DLPF is disabled (DLPF_CFG = 0 or
ARM GAS  C:\Users\satomin\AppData\Local\Temp\ccS6UKJQ.s 			page 5


 110:.\MPU6050/MPU6050.c ****  * 7), and 1kHz when the DLPF is enabled (see Register 26).
 111:.\MPU6050/MPU6050.c ****  *
 112:.\MPU6050/MPU6050.c ****  * Note: The accelerometer output rate is 1kHz. This means that for a Sample
 113:.\MPU6050/MPU6050.c ****  * Rate greater than 1kHz, the same accelerometer sample may be output to the
 114:.\MPU6050/MPU6050.c ****  * FIFO, DMP, and sensor registers more than once.
 115:.\MPU6050/MPU6050.c ****  *
 116:.\MPU6050/MPU6050.c ****  * For a diagram of the gyroscope and accelerometer signal paths, see Section 8
 117:.\MPU6050/MPU6050.c ****  * of the MPU-6000/MPU-6050 Product Specification document.
 118:.\MPU6050/MPU6050.c ****  *
 119:.\MPU6050/MPU6050.c ****  * @return Current sample rate
 120:.\MPU6050/MPU6050.c ****  * @see MPU6050_RA_SMPLRT_DIV
 121:.\MPU6050/MPU6050.c ****  */
 122:.\MPU6050/MPU6050.c **** uint8_t MPU6050_getRate() {
 120              		.loc 1 122 0
 121              		.cfi_startproc
 122              		@ args = 0, pretend = 0, frame = 0
 123              		@ frame_needed = 0, uses_anonymous_args = 0
 124 0000 10B5     		push	{r4, lr}
 125              		.cfi_def_cfa_offset 8
 126              		.cfi_offset 4, -8
 127              		.cfi_offset 14, -4
 123:.\MPU6050/MPU6050.c ****     I2Cdev_readByte(mpu6050.devAddr, MPU6050_RA_SMPLRT_DIV, mpu6050.buffer);
 128              		.loc 1 123 0
 129 0002 044C     		ldr	r4, .L14
 130 0004 2246     		mov	r2, r4
 131 0006 12F8010B 		ldrb	r0, [r2], #1	@ zero_extendqisi2
 132 000a 1921     		movs	r1, #25
 133 000c FFF7FEFF 		bl	I2Cdev_readByte
 134              	.LVL5:
 124:.\MPU6050/MPU6050.c ****     return mpu6050.buffer[0];
 125:.\MPU6050/MPU6050.c **** }
 135              		.loc 1 125 0
 136 0010 6078     		ldrb	r0, [r4, #1]	@ zero_extendqisi2
 137 0012 10BD     		pop	{r4, pc}
 138              	.L15:
 139              		.align	2
 140              	.L14:
 141 0014 00000000 		.word	mpu6050
 142              		.cfi_endproc
 143              	.LFE68:
 144              		.size	MPU6050_getRate, .-MPU6050_getRate
 145              		.section	.text.MPU6050_setRate,"ax",%progbits
 146              		.align	2
 147              		.global	MPU6050_setRate
 148              		.thumb
 149              		.thumb_func
 150              		.type	MPU6050_setRate, %function
 151              	MPU6050_setRate:
 152              	.LFB69:
 126:.\MPU6050/MPU6050.c **** /** Set gyroscope sample rate divider.
 127:.\MPU6050/MPU6050.c ****  * @param rate New sample rate divider
 128:.\MPU6050/MPU6050.c ****  * @see getRate()
 129:.\MPU6050/MPU6050.c ****  * @see MPU6050_RA_SMPLRT_DIV
 130:.\MPU6050/MPU6050.c ****  */
 131:.\MPU6050/MPU6050.c **** void MPU6050_setRate(uint8_t rate) {
 153              		.loc 1 131 0
 154              		.cfi_startproc
ARM GAS  C:\Users\satomin\AppData\Local\Temp\ccS6UKJQ.s 			page 6


 155              		@ args = 0, pretend = 0, frame = 0
 156              		@ frame_needed = 0, uses_anonymous_args = 0
 157              	.LVL6:
 158 0000 08B5     		push	{r3, lr}
 159              		.cfi_def_cfa_offset 8
 160              		.cfi_offset 3, -8
 161              		.cfi_offset 14, -4
 162 0002 0246     		mov	r2, r0
 132:.\MPU6050/MPU6050.c ****     I2Cdev_writeByte(mpu6050.devAddr, MPU6050_RA_SMPLRT_DIV, rate);
 163              		.loc 1 132 0
 164 0004 024B     		ldr	r3, .L18
 165 0006 1878     		ldrb	r0, [r3]	@ zero_extendqisi2
 166              	.LVL7:
 167 0008 1921     		movs	r1, #25
 168 000a FFF7FEFF 		bl	I2Cdev_writeByte
 169              	.LVL8:
 170 000e 08BD     		pop	{r3, pc}
 171              	.L19:
 172              		.align	2
 173              	.L18:
 174 0010 00000000 		.word	mpu6050
 175              		.cfi_endproc
 176              	.LFE69:
 177              		.size	MPU6050_setRate, .-MPU6050_setRate
 178              		.section	.text.MPU6050_getExternalFrameSync,"ax",%progbits
 179              		.align	2
 180              		.global	MPU6050_getExternalFrameSync
 181              		.thumb
 182              		.thumb_func
 183              		.type	MPU6050_getExternalFrameSync, %function
 184              	MPU6050_getExternalFrameSync:
 185              	.LFB70:
 133:.\MPU6050/MPU6050.c **** }
 134:.\MPU6050/MPU6050.c **** 
 135:.\MPU6050/MPU6050.c **** // CONFIG register
 136:.\MPU6050/MPU6050.c **** 
 137:.\MPU6050/MPU6050.c **** /** Get external FSYNC configuration.
 138:.\MPU6050/MPU6050.c ****  * Configures the external Frame Synchronization (FSYNC) pin sampling. An
 139:.\MPU6050/MPU6050.c ****  * external signal connected to the FSYNC pin can be sampled by configuring
 140:.\MPU6050/MPU6050.c ****  * EXT_SYNC_SET. Signal changes to the FSYNC pin are latched so that short
 141:.\MPU6050/MPU6050.c ****  * strobes may be captured. The latched FSYNC signal will be sampled at the
 142:.\MPU6050/MPU6050.c ****  * Sampling Rate, as defined in register 25. After sampling, the latch will
 143:.\MPU6050/MPU6050.c ****  * reset to the current FSYNC signal state.
 144:.\MPU6050/MPU6050.c ****  *
 145:.\MPU6050/MPU6050.c ****  * The sampled value will be reported in place of the least significant bit in
 146:.\MPU6050/MPU6050.c ****  * a sensor data register determined by the value of EXT_SYNC_SET according to
 147:.\MPU6050/MPU6050.c ****  * the following table.
 148:.\MPU6050/MPU6050.c ****  *
 149:.\MPU6050/MPU6050.c ****  * <pre>
 150:.\MPU6050/MPU6050.c ****  * EXT_SYNC_SET | FSYNC Bit Location
 151:.\MPU6050/MPU6050.c ****  * -------------+-------------------
 152:.\MPU6050/MPU6050.c ****  * 0            | Input disabled
 153:.\MPU6050/MPU6050.c ****  * 1            | TEMP_OUT_L[0]
 154:.\MPU6050/MPU6050.c ****  * 2            | GYRO_XOUT_L[0]
 155:.\MPU6050/MPU6050.c ****  * 3            | GYRO_YOUT_L[0]
 156:.\MPU6050/MPU6050.c ****  * 4            | GYRO_ZOUT_L[0]
 157:.\MPU6050/MPU6050.c ****  * 5            | ACCEL_XOUT_L[0]
ARM GAS  C:\Users\satomin\AppData\Local\Temp\ccS6UKJQ.s 			page 7


 158:.\MPU6050/MPU6050.c ****  * 6            | ACCEL_YOUT_L[0]
 159:.\MPU6050/MPU6050.c ****  * 7            | ACCEL_ZOUT_L[0]
 160:.\MPU6050/MPU6050.c ****  * </pre>
 161:.\MPU6050/MPU6050.c ****  *
 162:.\MPU6050/MPU6050.c ****  * @return FSYNC configuration value
 163:.\MPU6050/MPU6050.c ****  */
 164:.\MPU6050/MPU6050.c **** uint8_t MPU6050_getExternalFrameSync() {
 186              		.loc 1 164 0
 187              		.cfi_startproc
 188              		@ args = 0, pretend = 0, frame = 0
 189              		@ frame_needed = 0, uses_anonymous_args = 0
 190 0000 10B5     		push	{r4, lr}
 191              		.cfi_def_cfa_offset 8
 192              		.cfi_offset 4, -8
 193              		.cfi_offset 14, -4
 194 0002 82B0     		sub	sp, sp, #8
 195              		.cfi_def_cfa_offset 16
 165:.\MPU6050/MPU6050.c ****     I2Cdev_readBits(mpu6050.devAddr, MPU6050_RA_CONFIG, MPU6050_CFG_EXT_SYNC_SET_BIT, MPU6050_CFG_E
 196              		.loc 1 165 0
 197 0004 064C     		ldr	r4, .L22
 198 0006 2346     		mov	r3, r4
 199 0008 13F8010B 		ldrb	r0, [r3], #1	@ zero_extendqisi2
 200 000c 0093     		str	r3, [sp]
 201 000e 1A21     		movs	r1, #26
 202 0010 0522     		movs	r2, #5
 203 0012 0323     		movs	r3, #3
 204 0014 FFF7FEFF 		bl	I2Cdev_readBits
 205              	.LVL9:
 166:.\MPU6050/MPU6050.c ****     return mpu6050.buffer[0];
 167:.\MPU6050/MPU6050.c **** }
 206              		.loc 1 167 0
 207 0018 6078     		ldrb	r0, [r4, #1]	@ zero_extendqisi2
 208 001a 02B0     		add	sp, sp, #8
 209              		.cfi_def_cfa_offset 8
 210              		@ sp needed
 211 001c 10BD     		pop	{r4, pc}
 212              	.L23:
 213 001e 00BF     		.align	2
 214              	.L22:
 215 0020 00000000 		.word	mpu6050
 216              		.cfi_endproc
 217              	.LFE70:
 218              		.size	MPU6050_getExternalFrameSync, .-MPU6050_getExternalFrameSync
 219              		.section	.text.MPU6050_setExternalFrameSync,"ax",%progbits
 220              		.align	2
 221              		.global	MPU6050_setExternalFrameSync
 222              		.thumb
 223              		.thumb_func
 224              		.type	MPU6050_setExternalFrameSync, %function
 225              	MPU6050_setExternalFrameSync:
 226              	.LFB71:
 168:.\MPU6050/MPU6050.c **** /** Set external FSYNC configuration.
 169:.\MPU6050/MPU6050.c ****  * @see getExternalFrameSync()
 170:.\MPU6050/MPU6050.c ****  * @see MPU6050_RA_CONFIG
 171:.\MPU6050/MPU6050.c ****  * @param sync New FSYNC configuration value
 172:.\MPU6050/MPU6050.c ****  */
 173:.\MPU6050/MPU6050.c **** void MPU6050_setExternalFrameSync(uint8_t sync) {
ARM GAS  C:\Users\satomin\AppData\Local\Temp\ccS6UKJQ.s 			page 8


 227              		.loc 1 173 0
 228              		.cfi_startproc
 229              		@ args = 0, pretend = 0, frame = 0
 230              		@ frame_needed = 0, uses_anonymous_args = 0
 231              	.LVL10:
 232 0000 00B5     		push	{lr}
 233              		.cfi_def_cfa_offset 4
 234              		.cfi_offset 14, -4
 235 0002 83B0     		sub	sp, sp, #12
 236              		.cfi_def_cfa_offset 16
 174:.\MPU6050/MPU6050.c ****     I2Cdev_writeBits(mpu6050.devAddr, MPU6050_RA_CONFIG, MPU6050_CFG_EXT_SYNC_SET_BIT, MPU6050_CFG_
 237              		.loc 1 174 0
 238 0004 054B     		ldr	r3, .L26
 239 0006 1B78     		ldrb	r3, [r3]	@ zero_extendqisi2
 240 0008 0090     		str	r0, [sp]
 241 000a 1846     		mov	r0, r3
 242              	.LVL11:
 243 000c 1A21     		movs	r1, #26
 244 000e 0522     		movs	r2, #5
 245 0010 0323     		movs	r3, #3
 246 0012 FFF7FEFF 		bl	I2Cdev_writeBits
 247              	.LVL12:
 175:.\MPU6050/MPU6050.c **** }
 248              		.loc 1 175 0
 249 0016 03B0     		add	sp, sp, #12
 250              		.cfi_def_cfa_offset 4
 251              		@ sp needed
 252 0018 5DF804FB 		ldr	pc, [sp], #4
 253              	.L27:
 254              		.align	2
 255              	.L26:
 256 001c 00000000 		.word	mpu6050
 257              		.cfi_endproc
 258              	.LFE71:
 259              		.size	MPU6050_setExternalFrameSync, .-MPU6050_setExternalFrameSync
 260              		.section	.text.MPU6050_getDLPFMode,"ax",%progbits
 261              		.align	2
 262              		.global	MPU6050_getDLPFMode
 263              		.thumb
 264              		.thumb_func
 265              		.type	MPU6050_getDLPFMode, %function
 266              	MPU6050_getDLPFMode:
 267              	.LFB72:
 176:.\MPU6050/MPU6050.c **** /** Get digital low-pass filter configuration.
 177:.\MPU6050/MPU6050.c ****  * The DLPF_CFG parameter sets the digital low pass filter configuration. It
 178:.\MPU6050/MPU6050.c ****  * also determines the internal sampling rate used by the device as shown in
 179:.\MPU6050/MPU6050.c ****  * the table below.
 180:.\MPU6050/MPU6050.c ****  *
 181:.\MPU6050/MPU6050.c ****  * Note: The accelerometer output rate is 1kHz. This means that for a Sample
 182:.\MPU6050/MPU6050.c ****  * Rate greater than 1kHz, the same accelerometer sample may be output to the
 183:.\MPU6050/MPU6050.c ****  * FIFO, DMP, and sensor registers more than once.
 184:.\MPU6050/MPU6050.c ****  *
 185:.\MPU6050/MPU6050.c ****  * <pre>
 186:.\MPU6050/MPU6050.c ****  *          |   ACCELEROMETER    |           GYROSCOPE
 187:.\MPU6050/MPU6050.c ****  * DLPF_CFG | Bandwidth | Delay  | Bandwidth | Delay  | Sample Rate
 188:.\MPU6050/MPU6050.c ****  * ---------+-----------+--------+-----------+--------+-------------
 189:.\MPU6050/MPU6050.c ****  * 0        | 260Hz     | 0ms    | 256Hz     | 0.98ms | 8kHz
ARM GAS  C:\Users\satomin\AppData\Local\Temp\ccS6UKJQ.s 			page 9


 190:.\MPU6050/MPU6050.c ****  * 1        | 184Hz     | 2.0ms  | 188Hz     | 1.9ms  | 1kHz
 191:.\MPU6050/MPU6050.c ****  * 2        | 94Hz      | 3.0ms  | 98Hz      | 2.8ms  | 1kHz
 192:.\MPU6050/MPU6050.c ****  * 3        | 44Hz      | 4.9ms  | 42Hz      | 4.8ms  | 1kHz
 193:.\MPU6050/MPU6050.c ****  * 4        | 21Hz      | 8.5ms  | 20Hz      | 8.3ms  | 1kHz
 194:.\MPU6050/MPU6050.c ****  * 5        | 10Hz      | 13.8ms | 10Hz      | 13.4ms | 1kHz
 195:.\MPU6050/MPU6050.c ****  * 6        | 5Hz       | 19.0ms | 5Hz       | 18.6ms | 1kHz
 196:.\MPU6050/MPU6050.c ****  * 7        |   -- Reserved --   |   -- Reserved --   | Reserved
 197:.\MPU6050/MPU6050.c ****  * </pre>
 198:.\MPU6050/MPU6050.c ****  *
 199:.\MPU6050/MPU6050.c ****  * @return DLFP configuration
 200:.\MPU6050/MPU6050.c ****  * @see MPU6050_RA_CONFIG
 201:.\MPU6050/MPU6050.c ****  * @see MPU6050_CFG_DLPF_CFG_BIT
 202:.\MPU6050/MPU6050.c ****  * @see MPU6050_CFG_DLPF_CFG_LENGTH
 203:.\MPU6050/MPU6050.c ****  */
 204:.\MPU6050/MPU6050.c **** uint8_t MPU6050_getDLPFMode() {
 268              		.loc 1 204 0
 269              		.cfi_startproc
 270              		@ args = 0, pretend = 0, frame = 0
 271              		@ frame_needed = 0, uses_anonymous_args = 0
 272 0000 10B5     		push	{r4, lr}
 273              		.cfi_def_cfa_offset 8
 274              		.cfi_offset 4, -8
 275              		.cfi_offset 14, -4
 276 0002 82B0     		sub	sp, sp, #8
 277              		.cfi_def_cfa_offset 16
 205:.\MPU6050/MPU6050.c ****     I2Cdev_readBits(mpu6050.devAddr, MPU6050_RA_CONFIG, MPU6050_CFG_DLPF_CFG_BIT, MPU6050_CFG_DLPF_
 278              		.loc 1 205 0
 279 0004 064C     		ldr	r4, .L30
 280 0006 2346     		mov	r3, r4
 281 0008 13F8010B 		ldrb	r0, [r3], #1	@ zero_extendqisi2
 282 000c 0093     		str	r3, [sp]
 283 000e 1A21     		movs	r1, #26
 284 0010 0222     		movs	r2, #2
 285 0012 0323     		movs	r3, #3
 286 0014 FFF7FEFF 		bl	I2Cdev_readBits
 287              	.LVL13:
 206:.\MPU6050/MPU6050.c ****     return mpu6050.buffer[0];
 207:.\MPU6050/MPU6050.c **** }
 288              		.loc 1 207 0
 289 0018 6078     		ldrb	r0, [r4, #1]	@ zero_extendqisi2
 290 001a 02B0     		add	sp, sp, #8
 291              		.cfi_def_cfa_offset 8
 292              		@ sp needed
 293 001c 10BD     		pop	{r4, pc}
 294              	.L31:
 295 001e 00BF     		.align	2
 296              	.L30:
 297 0020 00000000 		.word	mpu6050
 298              		.cfi_endproc
 299              	.LFE72:
 300              		.size	MPU6050_getDLPFMode, .-MPU6050_getDLPFMode
 301              		.section	.text.MPU6050_setDLPFMode,"ax",%progbits
 302              		.align	2
 303              		.global	MPU6050_setDLPFMode
 304              		.thumb
 305              		.thumb_func
 306              		.type	MPU6050_setDLPFMode, %function
ARM GAS  C:\Users\satomin\AppData\Local\Temp\ccS6UKJQ.s 			page 10


 307              	MPU6050_setDLPFMode:
 308              	.LFB73:
 208:.\MPU6050/MPU6050.c **** /** Set digital low-pass filter configuration.
 209:.\MPU6050/MPU6050.c ****  * @param mode New DLFP configuration setting
 210:.\MPU6050/MPU6050.c ****  * @see getDLPFBandwidth()
 211:.\MPU6050/MPU6050.c ****  * @see MPU6050_DLPF_BW_256
 212:.\MPU6050/MPU6050.c ****  * @see MPU6050_RA_CONFIG
 213:.\MPU6050/MPU6050.c ****  * @see MPU6050_CFG_DLPF_CFG_BIT
 214:.\MPU6050/MPU6050.c ****  * @see MPU6050_CFG_DLPF_CFG_LENGTH
 215:.\MPU6050/MPU6050.c ****  */
 216:.\MPU6050/MPU6050.c **** void MPU6050_setDLPFMode(uint8_t mode) {
 309              		.loc 1 216 0
 310              		.cfi_startproc
 311              		@ args = 0, pretend = 0, frame = 0
 312              		@ frame_needed = 0, uses_anonymous_args = 0
 313              	.LVL14:
 314 0000 00B5     		push	{lr}
 315              		.cfi_def_cfa_offset 4
 316              		.cfi_offset 14, -4
 317 0002 83B0     		sub	sp, sp, #12
 318              		.cfi_def_cfa_offset 16
 217:.\MPU6050/MPU6050.c ****     I2Cdev_writeBits(mpu6050.devAddr, MPU6050_RA_CONFIG, MPU6050_CFG_DLPF_CFG_BIT, MPU6050_CFG_DLPF
 319              		.loc 1 217 0
 320 0004 054B     		ldr	r3, .L34
 321 0006 1B78     		ldrb	r3, [r3]	@ zero_extendqisi2
 322 0008 0090     		str	r0, [sp]
 323 000a 1846     		mov	r0, r3
 324              	.LVL15:
 325 000c 1A21     		movs	r1, #26
 326 000e 0222     		movs	r2, #2
 327 0010 0323     		movs	r3, #3
 328 0012 FFF7FEFF 		bl	I2Cdev_writeBits
 329              	.LVL16:
 218:.\MPU6050/MPU6050.c **** }
 330              		.loc 1 218 0
 331 0016 03B0     		add	sp, sp, #12
 332              		.cfi_def_cfa_offset 4
 333              		@ sp needed
 334 0018 5DF804FB 		ldr	pc, [sp], #4
 335              	.L35:
 336              		.align	2
 337              	.L34:
 338 001c 00000000 		.word	mpu6050
 339              		.cfi_endproc
 340              	.LFE73:
 341              		.size	MPU6050_setDLPFMode, .-MPU6050_setDLPFMode
 342              		.section	.text.MPU6050_getFullScaleGyroRange,"ax",%progbits
 343              		.align	2
 344              		.global	MPU6050_getFullScaleGyroRange
 345              		.thumb
 346              		.thumb_func
 347              		.type	MPU6050_getFullScaleGyroRange, %function
 348              	MPU6050_getFullScaleGyroRange:
 349              	.LFB74:
 219:.\MPU6050/MPU6050.c **** 
 220:.\MPU6050/MPU6050.c **** // GYRO_CONFIG register
 221:.\MPU6050/MPU6050.c **** 
ARM GAS  C:\Users\satomin\AppData\Local\Temp\ccS6UKJQ.s 			page 11


 222:.\MPU6050/MPU6050.c **** /** Get full-scale gyroscope range.
 223:.\MPU6050/MPU6050.c ****  * The FS_SEL parameter allows setting the full-scale range of the gyro sensors,
 224:.\MPU6050/MPU6050.c ****  * as described in the table below.
 225:.\MPU6050/MPU6050.c ****  *
 226:.\MPU6050/MPU6050.c ****  * <pre>
 227:.\MPU6050/MPU6050.c ****  * 0 = +/- 250 degrees/sec
 228:.\MPU6050/MPU6050.c ****  * 1 = +/- 500 degrees/sec
 229:.\MPU6050/MPU6050.c ****  * 2 = +/- 1000 degrees/sec
 230:.\MPU6050/MPU6050.c ****  * 3 = +/- 2000 degrees/sec
 231:.\MPU6050/MPU6050.c ****  * </pre>
 232:.\MPU6050/MPU6050.c ****  *
 233:.\MPU6050/MPU6050.c ****  * @return Current full-scale gyroscope range setting
 234:.\MPU6050/MPU6050.c ****  * @see MPU6050_GYRO_FS_250
 235:.\MPU6050/MPU6050.c ****  * @see MPU6050_RA_GYRO_CONFIG
 236:.\MPU6050/MPU6050.c ****  * @see MPU6050_GCONFIG_FS_SEL_BIT
 237:.\MPU6050/MPU6050.c ****  * @see MPU6050_GCONFIG_FS_SEL_LENGTH
 238:.\MPU6050/MPU6050.c ****  */
 239:.\MPU6050/MPU6050.c **** uint8_t MPU6050_getFullScaleGyroRange() {
 350              		.loc 1 239 0
 351              		.cfi_startproc
 352              		@ args = 0, pretend = 0, frame = 0
 353              		@ frame_needed = 0, uses_anonymous_args = 0
 354 0000 10B5     		push	{r4, lr}
 355              		.cfi_def_cfa_offset 8
 356              		.cfi_offset 4, -8
 357              		.cfi_offset 14, -4
 358 0002 82B0     		sub	sp, sp, #8
 359              		.cfi_def_cfa_offset 16
 240:.\MPU6050/MPU6050.c ****     I2Cdev_readBits(mpu6050.devAddr, MPU6050_RA_GYRO_CONFIG, MPU6050_GCONFIG_FS_SEL_BIT, MPU6050_GC
 360              		.loc 1 240 0
 361 0004 064C     		ldr	r4, .L38
 362 0006 2346     		mov	r3, r4
 363 0008 13F8010B 		ldrb	r0, [r3], #1	@ zero_extendqisi2
 364 000c 0093     		str	r3, [sp]
 365 000e 1B21     		movs	r1, #27
 366 0010 0422     		movs	r2, #4
 367 0012 0223     		movs	r3, #2
 368 0014 FFF7FEFF 		bl	I2Cdev_readBits
 369              	.LVL17:
 241:.\MPU6050/MPU6050.c ****     return mpu6050.buffer[0];
 242:.\MPU6050/MPU6050.c **** }
 370              		.loc 1 242 0
 371 0018 6078     		ldrb	r0, [r4, #1]	@ zero_extendqisi2
 372 001a 02B0     		add	sp, sp, #8
 373              		.cfi_def_cfa_offset 8
 374              		@ sp needed
 375 001c 10BD     		pop	{r4, pc}
 376              	.L39:
 377 001e 00BF     		.align	2
 378              	.L38:
 379 0020 00000000 		.word	mpu6050
 380              		.cfi_endproc
 381              	.LFE74:
 382              		.size	MPU6050_getFullScaleGyroRange, .-MPU6050_getFullScaleGyroRange
 383              		.section	.text.MPU6050_setFullScaleGyroRange,"ax",%progbits
 384              		.align	2
 385              		.global	MPU6050_setFullScaleGyroRange
ARM GAS  C:\Users\satomin\AppData\Local\Temp\ccS6UKJQ.s 			page 12


 386              		.thumb
 387              		.thumb_func
 388              		.type	MPU6050_setFullScaleGyroRange, %function
 389              	MPU6050_setFullScaleGyroRange:
 390              	.LFB75:
 243:.\MPU6050/MPU6050.c **** /** Set full-scale gyroscope range.
 244:.\MPU6050/MPU6050.c ****  * @param range New full-scale gyroscope range value
 245:.\MPU6050/MPU6050.c ****  * @see getFullScaleRange()
 246:.\MPU6050/MPU6050.c ****  * @see MPU6050_GYRO_FS_250
 247:.\MPU6050/MPU6050.c ****  * @see MPU6050_RA_GYRO_CONFIG
 248:.\MPU6050/MPU6050.c ****  * @see MPU6050_GCONFIG_FS_SEL_BIT
 249:.\MPU6050/MPU6050.c ****  * @see MPU6050_GCONFIG_FS_SEL_LENGTH
 250:.\MPU6050/MPU6050.c ****  */
 251:.\MPU6050/MPU6050.c **** void MPU6050_setFullScaleGyroRange(uint8_t range) {
 391              		.loc 1 251 0
 392              		.cfi_startproc
 393              		@ args = 0, pretend = 0, frame = 0
 394              		@ frame_needed = 0, uses_anonymous_args = 0
 395              	.LVL18:
 396 0000 00B5     		push	{lr}
 397              		.cfi_def_cfa_offset 4
 398              		.cfi_offset 14, -4
 399 0002 83B0     		sub	sp, sp, #12
 400              		.cfi_def_cfa_offset 16
 252:.\MPU6050/MPU6050.c ****     I2Cdev_writeBits(mpu6050.devAddr, MPU6050_RA_GYRO_CONFIG, MPU6050_GCONFIG_FS_SEL_BIT, MPU6050_G
 401              		.loc 1 252 0
 402 0004 054B     		ldr	r3, .L42
 403 0006 1B78     		ldrb	r3, [r3]	@ zero_extendqisi2
 404 0008 0090     		str	r0, [sp]
 405 000a 1846     		mov	r0, r3
 406              	.LVL19:
 407 000c 1B21     		movs	r1, #27
 408 000e 0422     		movs	r2, #4
 409 0010 0223     		movs	r3, #2
 410 0012 FFF7FEFF 		bl	I2Cdev_writeBits
 411              	.LVL20:
 253:.\MPU6050/MPU6050.c **** }
 412              		.loc 1 253 0
 413 0016 03B0     		add	sp, sp, #12
 414              		.cfi_def_cfa_offset 4
 415              		@ sp needed
 416 0018 5DF804FB 		ldr	pc, [sp], #4
 417              	.L43:
 418              		.align	2
 419              	.L42:
 420 001c 00000000 		.word	mpu6050
 421              		.cfi_endproc
 422              	.LFE75:
 423              		.size	MPU6050_setFullScaleGyroRange, .-MPU6050_setFullScaleGyroRange
 424              		.section	.text.MPU6050_getAccelXSelfTest,"ax",%progbits
 425              		.align	2
 426              		.global	MPU6050_getAccelXSelfTest
 427              		.thumb
 428              		.thumb_func
 429              		.type	MPU6050_getAccelXSelfTest, %function
 430              	MPU6050_getAccelXSelfTest:
 431              	.LFB76:
ARM GAS  C:\Users\satomin\AppData\Local\Temp\ccS6UKJQ.s 			page 13


 254:.\MPU6050/MPU6050.c **** 
 255:.\MPU6050/MPU6050.c **** // ACCEL_CONFIG register
 256:.\MPU6050/MPU6050.c **** 
 257:.\MPU6050/MPU6050.c **** /** Get self-test enabled setting for accelerometer X axis.
 258:.\MPU6050/MPU6050.c ****  * @return Self-test enabled value
 259:.\MPU6050/MPU6050.c ****  * @see MPU6050_RA_ACCEL_CONFIG
 260:.\MPU6050/MPU6050.c ****  */
 261:.\MPU6050/MPU6050.c **** bool MPU6050_getAccelXSelfTest() {
 432              		.loc 1 261 0
 433              		.cfi_startproc
 434              		@ args = 0, pretend = 0, frame = 0
 435              		@ frame_needed = 0, uses_anonymous_args = 0
 436 0000 10B5     		push	{r4, lr}
 437              		.cfi_def_cfa_offset 8
 438              		.cfi_offset 4, -8
 439              		.cfi_offset 14, -4
 262:.\MPU6050/MPU6050.c ****     I2Cdev_readBit(mpu6050.devAddr, MPU6050_RA_ACCEL_CONFIG, MPU6050_ACONFIG_XA_ST_BIT, mpu6050.buf
 440              		.loc 1 262 0
 441 0002 064C     		ldr	r4, .L46
 442 0004 2346     		mov	r3, r4
 443 0006 13F8010B 		ldrb	r0, [r3], #1	@ zero_extendqisi2
 444 000a 1C21     		movs	r1, #28
 445 000c 0722     		movs	r2, #7
 446 000e FFF7FEFF 		bl	I2Cdev_readBit
 447              	.LVL21:
 263:.\MPU6050/MPU6050.c ****     return mpu6050.buffer[0];
 448              		.loc 1 263 0
 449 0012 6078     		ldrb	r0, [r4, #1]	@ zero_extendqisi2
 264:.\MPU6050/MPU6050.c **** }
 450              		.loc 1 264 0
 451 0014 0030     		adds	r0, r0, #0
 452 0016 18BF     		it	ne
 453 0018 0120     		movne	r0, #1
 454 001a 10BD     		pop	{r4, pc}
 455              	.L47:
 456              		.align	2
 457              	.L46:
 458 001c 00000000 		.word	mpu6050
 459              		.cfi_endproc
 460              	.LFE76:
 461              		.size	MPU6050_getAccelXSelfTest, .-MPU6050_getAccelXSelfTest
 462              		.section	.text.MPU6050_setAccelXSelfTest,"ax",%progbits
 463              		.align	2
 464              		.global	MPU6050_setAccelXSelfTest
 465              		.thumb
 466              		.thumb_func
 467              		.type	MPU6050_setAccelXSelfTest, %function
 468              	MPU6050_setAccelXSelfTest:
 469              	.LFB77:
 265:.\MPU6050/MPU6050.c **** /** Get self-test enabled setting for accelerometer X axis.
 266:.\MPU6050/MPU6050.c ****  * @param enabled Self-test enabled value
 267:.\MPU6050/MPU6050.c ****  * @see MPU6050_RA_ACCEL_CONFIG
 268:.\MPU6050/MPU6050.c ****  */
 269:.\MPU6050/MPU6050.c **** void MPU6050_setAccelXSelfTest(bool enabled) {
 470              		.loc 1 269 0
 471              		.cfi_startproc
 472              		@ args = 0, pretend = 0, frame = 0
ARM GAS  C:\Users\satomin\AppData\Local\Temp\ccS6UKJQ.s 			page 14


 473              		@ frame_needed = 0, uses_anonymous_args = 0
 474              	.LVL22:
 475 0000 08B5     		push	{r3, lr}
 476              		.cfi_def_cfa_offset 8
 477              		.cfi_offset 3, -8
 478              		.cfi_offset 14, -4
 479 0002 0346     		mov	r3, r0
 270:.\MPU6050/MPU6050.c ****     I2Cdev_writeBit(mpu6050.devAddr, MPU6050_RA_ACCEL_CONFIG, MPU6050_ACONFIG_XA_ST_BIT, enabled);
 480              		.loc 1 270 0
 481 0004 034A     		ldr	r2, .L50
 482 0006 1078     		ldrb	r0, [r2]	@ zero_extendqisi2
 483              	.LVL23:
 484 0008 1C21     		movs	r1, #28
 485 000a 0722     		movs	r2, #7
 486 000c FFF7FEFF 		bl	I2Cdev_writeBit
 487              	.LVL24:
 488 0010 08BD     		pop	{r3, pc}
 489              	.L51:
 490 0012 00BF     		.align	2
 491              	.L50:
 492 0014 00000000 		.word	mpu6050
 493              		.cfi_endproc
 494              	.LFE77:
 495              		.size	MPU6050_setAccelXSelfTest, .-MPU6050_setAccelXSelfTest
 496              		.section	.text.MPU6050_getAccelYSelfTest,"ax",%progbits
 497              		.align	2
 498              		.global	MPU6050_getAccelYSelfTest
 499              		.thumb
 500              		.thumb_func
 501              		.type	MPU6050_getAccelYSelfTest, %function
 502              	MPU6050_getAccelYSelfTest:
 503              	.LFB78:
 271:.\MPU6050/MPU6050.c **** }
 272:.\MPU6050/MPU6050.c **** /** Get self-test enabled value for accelerometer Y axis.
 273:.\MPU6050/MPU6050.c ****  * @return Self-test enabled value
 274:.\MPU6050/MPU6050.c ****  * @see MPU6050_RA_ACCEL_CONFIG
 275:.\MPU6050/MPU6050.c ****  */
 276:.\MPU6050/MPU6050.c **** bool MPU6050_getAccelYSelfTest() {
 504              		.loc 1 276 0
 505              		.cfi_startproc
 506              		@ args = 0, pretend = 0, frame = 0
 507              		@ frame_needed = 0, uses_anonymous_args = 0
 508 0000 10B5     		push	{r4, lr}
 509              		.cfi_def_cfa_offset 8
 510              		.cfi_offset 4, -8
 511              		.cfi_offset 14, -4
 277:.\MPU6050/MPU6050.c ****     I2Cdev_readBit(mpu6050.devAddr, MPU6050_RA_ACCEL_CONFIG, MPU6050_ACONFIG_YA_ST_BIT, mpu6050.buf
 512              		.loc 1 277 0
 513 0002 064C     		ldr	r4, .L54
 514 0004 2346     		mov	r3, r4
 515 0006 13F8010B 		ldrb	r0, [r3], #1	@ zero_extendqisi2
 516 000a 1C21     		movs	r1, #28
 517 000c 0622     		movs	r2, #6
 518 000e FFF7FEFF 		bl	I2Cdev_readBit
 519              	.LVL25:
 278:.\MPU6050/MPU6050.c ****     return mpu6050.buffer[0];
 520              		.loc 1 278 0
ARM GAS  C:\Users\satomin\AppData\Local\Temp\ccS6UKJQ.s 			page 15


 521 0012 6078     		ldrb	r0, [r4, #1]	@ zero_extendqisi2
 279:.\MPU6050/MPU6050.c **** }
 522              		.loc 1 279 0
 523 0014 0030     		adds	r0, r0, #0
 524 0016 18BF     		it	ne
 525 0018 0120     		movne	r0, #1
 526 001a 10BD     		pop	{r4, pc}
 527              	.L55:
 528              		.align	2
 529              	.L54:
 530 001c 00000000 		.word	mpu6050
 531              		.cfi_endproc
 532              	.LFE78:
 533              		.size	MPU6050_getAccelYSelfTest, .-MPU6050_getAccelYSelfTest
 534              		.section	.text.MPU6050_setAccelYSelfTest,"ax",%progbits
 535              		.align	2
 536              		.global	MPU6050_setAccelYSelfTest
 537              		.thumb
 538              		.thumb_func
 539              		.type	MPU6050_setAccelYSelfTest, %function
 540              	MPU6050_setAccelYSelfTest:
 541              	.LFB79:
 280:.\MPU6050/MPU6050.c **** /** Get self-test enabled value for accelerometer Y axis.
 281:.\MPU6050/MPU6050.c ****  * @param enabled Self-test enabled value
 282:.\MPU6050/MPU6050.c ****  * @see MPU6050_RA_ACCEL_CONFIG
 283:.\MPU6050/MPU6050.c ****  */
 284:.\MPU6050/MPU6050.c **** void MPU6050_setAccelYSelfTest(bool enabled) {
 542              		.loc 1 284 0
 543              		.cfi_startproc
 544              		@ args = 0, pretend = 0, frame = 0
 545              		@ frame_needed = 0, uses_anonymous_args = 0
 546              	.LVL26:
 547 0000 08B5     		push	{r3, lr}
 548              		.cfi_def_cfa_offset 8
 549              		.cfi_offset 3, -8
 550              		.cfi_offset 14, -4
 551 0002 0346     		mov	r3, r0
 285:.\MPU6050/MPU6050.c ****     I2Cdev_writeBit(mpu6050.devAddr, MPU6050_RA_ACCEL_CONFIG, MPU6050_ACONFIG_YA_ST_BIT, enabled);
 552              		.loc 1 285 0
 553 0004 034A     		ldr	r2, .L58
 554 0006 1078     		ldrb	r0, [r2]	@ zero_extendqisi2
 555              	.LVL27:
 556 0008 1C21     		movs	r1, #28
 557 000a 0622     		movs	r2, #6
 558 000c FFF7FEFF 		bl	I2Cdev_writeBit
 559              	.LVL28:
 560 0010 08BD     		pop	{r3, pc}
 561              	.L59:
 562 0012 00BF     		.align	2
 563              	.L58:
 564 0014 00000000 		.word	mpu6050
 565              		.cfi_endproc
 566              	.LFE79:
 567              		.size	MPU6050_setAccelYSelfTest, .-MPU6050_setAccelYSelfTest
 568              		.section	.text.MPU6050_getAccelZSelfTest,"ax",%progbits
 569              		.align	2
 570              		.global	MPU6050_getAccelZSelfTest
ARM GAS  C:\Users\satomin\AppData\Local\Temp\ccS6UKJQ.s 			page 16


 571              		.thumb
 572              		.thumb_func
 573              		.type	MPU6050_getAccelZSelfTest, %function
 574              	MPU6050_getAccelZSelfTest:
 575              	.LFB80:
 286:.\MPU6050/MPU6050.c **** }
 287:.\MPU6050/MPU6050.c **** /** Get self-test enabled value for accelerometer Z axis.
 288:.\MPU6050/MPU6050.c ****  * @return Self-test enabled value
 289:.\MPU6050/MPU6050.c ****  * @see MPU6050_RA_ACCEL_CONFIG
 290:.\MPU6050/MPU6050.c ****  */
 291:.\MPU6050/MPU6050.c **** bool MPU6050_getAccelZSelfTest() {
 576              		.loc 1 291 0
 577              		.cfi_startproc
 578              		@ args = 0, pretend = 0, frame = 0
 579              		@ frame_needed = 0, uses_anonymous_args = 0
 580 0000 10B5     		push	{r4, lr}
 581              		.cfi_def_cfa_offset 8
 582              		.cfi_offset 4, -8
 583              		.cfi_offset 14, -4
 292:.\MPU6050/MPU6050.c ****     I2Cdev_readBit(mpu6050.devAddr, MPU6050_RA_ACCEL_CONFIG, MPU6050_ACONFIG_ZA_ST_BIT, mpu6050.buf
 584              		.loc 1 292 0
 585 0002 064C     		ldr	r4, .L62
 586 0004 2346     		mov	r3, r4
 587 0006 13F8010B 		ldrb	r0, [r3], #1	@ zero_extendqisi2
 588 000a 1C21     		movs	r1, #28
 589 000c 0522     		movs	r2, #5
 590 000e FFF7FEFF 		bl	I2Cdev_readBit
 591              	.LVL29:
 293:.\MPU6050/MPU6050.c ****     return mpu6050.buffer[0];
 592              		.loc 1 293 0
 593 0012 6078     		ldrb	r0, [r4, #1]	@ zero_extendqisi2
 294:.\MPU6050/MPU6050.c **** }
 594              		.loc 1 294 0
 595 0014 0030     		adds	r0, r0, #0
 596 0016 18BF     		it	ne
 597 0018 0120     		movne	r0, #1
 598 001a 10BD     		pop	{r4, pc}
 599              	.L63:
 600              		.align	2
 601              	.L62:
 602 001c 00000000 		.word	mpu6050
 603              		.cfi_endproc
 604              	.LFE80:
 605              		.size	MPU6050_getAccelZSelfTest, .-MPU6050_getAccelZSelfTest
 606              		.section	.text.MPU6050_setAccelZSelfTest,"ax",%progbits
 607              		.align	2
 608              		.global	MPU6050_setAccelZSelfTest
 609              		.thumb
 610              		.thumb_func
 611              		.type	MPU6050_setAccelZSelfTest, %function
 612              	MPU6050_setAccelZSelfTest:
 613              	.LFB81:
 295:.\MPU6050/MPU6050.c **** /** Set self-test enabled value for accelerometer Z axis.
 296:.\MPU6050/MPU6050.c ****  * @param enabled Self-test enabled value
 297:.\MPU6050/MPU6050.c ****  * @see MPU6050_RA_ACCEL_CONFIG
 298:.\MPU6050/MPU6050.c ****  */
 299:.\MPU6050/MPU6050.c **** void MPU6050_setAccelZSelfTest(bool enabled) {
ARM GAS  C:\Users\satomin\AppData\Local\Temp\ccS6UKJQ.s 			page 17


 614              		.loc 1 299 0
 615              		.cfi_startproc
 616              		@ args = 0, pretend = 0, frame = 0
 617              		@ frame_needed = 0, uses_anonymous_args = 0
 618              	.LVL30:
 619 0000 08B5     		push	{r3, lr}
 620              		.cfi_def_cfa_offset 8
 621              		.cfi_offset 3, -8
 622              		.cfi_offset 14, -4
 623 0002 0346     		mov	r3, r0
 300:.\MPU6050/MPU6050.c ****     I2Cdev_writeBit(mpu6050.devAddr, MPU6050_RA_ACCEL_CONFIG, MPU6050_ACONFIG_ZA_ST_BIT, enabled);
 624              		.loc 1 300 0
 625 0004 034A     		ldr	r2, .L66
 626 0006 1078     		ldrb	r0, [r2]	@ zero_extendqisi2
 627              	.LVL31:
 628 0008 1C21     		movs	r1, #28
 629 000a 0522     		movs	r2, #5
 630 000c FFF7FEFF 		bl	I2Cdev_writeBit
 631              	.LVL32:
 632 0010 08BD     		pop	{r3, pc}
 633              	.L67:
 634 0012 00BF     		.align	2
 635              	.L66:
 636 0014 00000000 		.word	mpu6050
 637              		.cfi_endproc
 638              	.LFE81:
 639              		.size	MPU6050_setAccelZSelfTest, .-MPU6050_setAccelZSelfTest
 640              		.section	.text.MPU6050_getFullScaleAccelRange,"ax",%progbits
 641              		.align	2
 642              		.global	MPU6050_getFullScaleAccelRange
 643              		.thumb
 644              		.thumb_func
 645              		.type	MPU6050_getFullScaleAccelRange, %function
 646              	MPU6050_getFullScaleAccelRange:
 647              	.LFB82:
 301:.\MPU6050/MPU6050.c **** }
 302:.\MPU6050/MPU6050.c **** /** Get full-scale accelerometer range.
 303:.\MPU6050/MPU6050.c ****  * The FS_SEL parameter allows setting the full-scale range of the accelerometer
 304:.\MPU6050/MPU6050.c ****  * sensors, as described in the table below.
 305:.\MPU6050/MPU6050.c ****  *
 306:.\MPU6050/MPU6050.c ****  * <pre>
 307:.\MPU6050/MPU6050.c ****  * 0 = +/- 2g
 308:.\MPU6050/MPU6050.c ****  * 1 = +/- 4g
 309:.\MPU6050/MPU6050.c ****  * 2 = +/- 8g
 310:.\MPU6050/MPU6050.c ****  * 3 = +/- 16g
 311:.\MPU6050/MPU6050.c ****  * </pre>
 312:.\MPU6050/MPU6050.c ****  *
 313:.\MPU6050/MPU6050.c ****  * @return Current full-scale accelerometer range setting
 314:.\MPU6050/MPU6050.c ****  * @see MPU6050_ACCEL_FS_2
 315:.\MPU6050/MPU6050.c ****  * @see MPU6050_RA_ACCEL_CONFIG
 316:.\MPU6050/MPU6050.c ****  * @see MPU6050_ACONFIG_AFS_SEL_BIT
 317:.\MPU6050/MPU6050.c ****  * @see MPU6050_ACONFIG_AFS_SEL_LENGTH
 318:.\MPU6050/MPU6050.c ****  */
 319:.\MPU6050/MPU6050.c **** uint8_t MPU6050_getFullScaleAccelRange() {
 648              		.loc 1 319 0
 649              		.cfi_startproc
 650              		@ args = 0, pretend = 0, frame = 0
ARM GAS  C:\Users\satomin\AppData\Local\Temp\ccS6UKJQ.s 			page 18


 651              		@ frame_needed = 0, uses_anonymous_args = 0
 652 0000 10B5     		push	{r4, lr}
 653              		.cfi_def_cfa_offset 8
 654              		.cfi_offset 4, -8
 655              		.cfi_offset 14, -4
 656 0002 82B0     		sub	sp, sp, #8
 657              		.cfi_def_cfa_offset 16
 320:.\MPU6050/MPU6050.c ****     I2Cdev_readBits(mpu6050.devAddr, MPU6050_RA_ACCEL_CONFIG, MPU6050_ACONFIG_AFS_SEL_BIT, MPU6050_
 658              		.loc 1 320 0
 659 0004 064C     		ldr	r4, .L70
 660 0006 2346     		mov	r3, r4
 661 0008 13F8010B 		ldrb	r0, [r3], #1	@ zero_extendqisi2
 662 000c 0093     		str	r3, [sp]
 663 000e 1C21     		movs	r1, #28
 664 0010 0422     		movs	r2, #4
 665 0012 0223     		movs	r3, #2
 666 0014 FFF7FEFF 		bl	I2Cdev_readBits
 667              	.LVL33:
 321:.\MPU6050/MPU6050.c ****     return mpu6050.buffer[0];
 322:.\MPU6050/MPU6050.c **** }
 668              		.loc 1 322 0
 669 0018 6078     		ldrb	r0, [r4, #1]	@ zero_extendqisi2
 670 001a 02B0     		add	sp, sp, #8
 671              		.cfi_def_cfa_offset 8
 672              		@ sp needed
 673 001c 10BD     		pop	{r4, pc}
 674              	.L71:
 675 001e 00BF     		.align	2
 676              	.L70:
 677 0020 00000000 		.word	mpu6050
 678              		.cfi_endproc
 679              	.LFE82:
 680              		.size	MPU6050_getFullScaleAccelRange, .-MPU6050_getFullScaleAccelRange
 681              		.section	.text.MPU6050_setFullScaleAccelRange,"ax",%progbits
 682              		.align	2
 683              		.global	MPU6050_setFullScaleAccelRange
 684              		.thumb
 685              		.thumb_func
 686              		.type	MPU6050_setFullScaleAccelRange, %function
 687              	MPU6050_setFullScaleAccelRange:
 688              	.LFB83:
 323:.\MPU6050/MPU6050.c **** /** Set full-scale accelerometer range.
 324:.\MPU6050/MPU6050.c ****  * @param range New full-scale accelerometer range setting
 325:.\MPU6050/MPU6050.c ****  * @see getFullScaleAccelRange()
 326:.\MPU6050/MPU6050.c ****  */
 327:.\MPU6050/MPU6050.c **** void MPU6050_setFullScaleAccelRange(uint8_t range) {
 689              		.loc 1 327 0
 690              		.cfi_startproc
 691              		@ args = 0, pretend = 0, frame = 0
 692              		@ frame_needed = 0, uses_anonymous_args = 0
 693              	.LVL34:
 694 0000 00B5     		push	{lr}
 695              		.cfi_def_cfa_offset 4
 696              		.cfi_offset 14, -4
 697 0002 83B0     		sub	sp, sp, #12
 698              		.cfi_def_cfa_offset 16
 328:.\MPU6050/MPU6050.c ****     I2Cdev_writeBits(mpu6050.devAddr, MPU6050_RA_ACCEL_CONFIG, MPU6050_ACONFIG_AFS_SEL_BIT, MPU6050
ARM GAS  C:\Users\satomin\AppData\Local\Temp\ccS6UKJQ.s 			page 19


 699              		.loc 1 328 0
 700 0004 054B     		ldr	r3, .L74
 701 0006 1B78     		ldrb	r3, [r3]	@ zero_extendqisi2
 702 0008 0090     		str	r0, [sp]
 703 000a 1846     		mov	r0, r3
 704              	.LVL35:
 705 000c 1C21     		movs	r1, #28
 706 000e 0422     		movs	r2, #4
 707 0010 0223     		movs	r3, #2
 708 0012 FFF7FEFF 		bl	I2Cdev_writeBits
 709              	.LVL36:
 329:.\MPU6050/MPU6050.c **** }
 710              		.loc 1 329 0
 711 0016 03B0     		add	sp, sp, #12
 712              		.cfi_def_cfa_offset 4
 713              		@ sp needed
 714 0018 5DF804FB 		ldr	pc, [sp], #4
 715              	.L75:
 716              		.align	2
 717              	.L74:
 718 001c 00000000 		.word	mpu6050
 719              		.cfi_endproc
 720              	.LFE83:
 721              		.size	MPU6050_setFullScaleAccelRange, .-MPU6050_setFullScaleAccelRange
 722              		.section	.text.MPU6050_getDHPFMode,"ax",%progbits
 723              		.align	2
 724              		.global	MPU6050_getDHPFMode
 725              		.thumb
 726              		.thumb_func
 727              		.type	MPU6050_getDHPFMode, %function
 728              	MPU6050_getDHPFMode:
 729              	.LFB84:
 330:.\MPU6050/MPU6050.c **** /** Get the high-pass filter configuration.
 331:.\MPU6050/MPU6050.c ****  * The DHPF is a filter module in the path leading to motion detectors (Free
 332:.\MPU6050/MPU6050.c ****  * Fall, Motion threshold, and Zero Motion). The high pass filter output is not
 333:.\MPU6050/MPU6050.c ****  * available to the data registers (see Figure in Section 8 of the MPU-6000/
 334:.\MPU6050/MPU6050.c ****  * MPU-6050 Product Specification document).
 335:.\MPU6050/MPU6050.c ****  *
 336:.\MPU6050/MPU6050.c ****  * The high pass filter has three modes:
 337:.\MPU6050/MPU6050.c ****  *
 338:.\MPU6050/MPU6050.c ****  * <pre>
 339:.\MPU6050/MPU6050.c ****  *    Reset: The filter output settles to zero within one sample. This
 340:.\MPU6050/MPU6050.c ****  *           effectively disables the high pass filter. This mode may be toggled
 341:.\MPU6050/MPU6050.c ****  *           to quickly settle the filter.
 342:.\MPU6050/MPU6050.c ****  *
 343:.\MPU6050/MPU6050.c ****  *    On:    The high pass filter will pass signals above the cut off frequency.
 344:.\MPU6050/MPU6050.c ****  *
 345:.\MPU6050/MPU6050.c ****  *    Hold:  When triggered, the filter holds the present sample. The filter
 346:.\MPU6050/MPU6050.c ****  *           output will be the difference between the input sample and the held
 347:.\MPU6050/MPU6050.c ****  *           sample.
 348:.\MPU6050/MPU6050.c ****  * </pre>
 349:.\MPU6050/MPU6050.c ****  *
 350:.\MPU6050/MPU6050.c ****  * <pre>
 351:.\MPU6050/MPU6050.c ****  * ACCEL_HPF | Filter Mode | Cut-off Frequency
 352:.\MPU6050/MPU6050.c ****  * ----------+-------------+------------------
 353:.\MPU6050/MPU6050.c ****  * 0         | Reset       | None
 354:.\MPU6050/MPU6050.c ****  * 1         | On          | 5Hz
ARM GAS  C:\Users\satomin\AppData\Local\Temp\ccS6UKJQ.s 			page 20


 355:.\MPU6050/MPU6050.c ****  * 2         | On          | 2.5Hz
 356:.\MPU6050/MPU6050.c ****  * 3         | On          | 1.25Hz
 357:.\MPU6050/MPU6050.c ****  * 4         | On          | 0.63Hz
 358:.\MPU6050/MPU6050.c ****  * 7         | Hold        | None
 359:.\MPU6050/MPU6050.c ****  * </pre>
 360:.\MPU6050/MPU6050.c ****  *
 361:.\MPU6050/MPU6050.c ****  * @return Current high-pass filter configuration
 362:.\MPU6050/MPU6050.c ****  * @see MPU6050_DHPF_RESET
 363:.\MPU6050/MPU6050.c ****  * @see MPU6050_RA_ACCEL_CONFIG
 364:.\MPU6050/MPU6050.c ****  */
 365:.\MPU6050/MPU6050.c **** uint8_t MPU6050_getDHPFMode() {
 730              		.loc 1 365 0
 731              		.cfi_startproc
 732              		@ args = 0, pretend = 0, frame = 0
 733              		@ frame_needed = 0, uses_anonymous_args = 0
 734 0000 10B5     		push	{r4, lr}
 735              		.cfi_def_cfa_offset 8
 736              		.cfi_offset 4, -8
 737              		.cfi_offset 14, -4
 738 0002 82B0     		sub	sp, sp, #8
 739              		.cfi_def_cfa_offset 16
 366:.\MPU6050/MPU6050.c ****     I2Cdev_readBits(mpu6050.devAddr, MPU6050_RA_ACCEL_CONFIG, MPU6050_ACONFIG_ACCEL_HPF_BIT, MPU605
 740              		.loc 1 366 0
 741 0004 064C     		ldr	r4, .L78
 742 0006 2346     		mov	r3, r4
 743 0008 13F8010B 		ldrb	r0, [r3], #1	@ zero_extendqisi2
 744 000c 0093     		str	r3, [sp]
 745 000e 1C21     		movs	r1, #28
 746 0010 0222     		movs	r2, #2
 747 0012 0323     		movs	r3, #3
 748 0014 FFF7FEFF 		bl	I2Cdev_readBits
 749              	.LVL37:
 367:.\MPU6050/MPU6050.c ****     return mpu6050.buffer[0];
 368:.\MPU6050/MPU6050.c **** }
 750              		.loc 1 368 0
 751 0018 6078     		ldrb	r0, [r4, #1]	@ zero_extendqisi2
 752 001a 02B0     		add	sp, sp, #8
 753              		.cfi_def_cfa_offset 8
 754              		@ sp needed
 755 001c 10BD     		pop	{r4, pc}
 756              	.L79:
 757 001e 00BF     		.align	2
 758              	.L78:
 759 0020 00000000 		.word	mpu6050
 760              		.cfi_endproc
 761              	.LFE84:
 762              		.size	MPU6050_getDHPFMode, .-MPU6050_getDHPFMode
 763              		.section	.text.MPU6050_setDHPFMode,"ax",%progbits
 764              		.align	2
 765              		.global	MPU6050_setDHPFMode
 766              		.thumb
 767              		.thumb_func
 768              		.type	MPU6050_setDHPFMode, %function
 769              	MPU6050_setDHPFMode:
 770              	.LFB85:
 369:.\MPU6050/MPU6050.c **** /** Set the high-pass filter configuration.
 370:.\MPU6050/MPU6050.c ****  * @param bandwidth New high-pass filter configuration
ARM GAS  C:\Users\satomin\AppData\Local\Temp\ccS6UKJQ.s 			page 21


 371:.\MPU6050/MPU6050.c ****  * @see setDHPFMode()
 372:.\MPU6050/MPU6050.c ****  * @see MPU6050_DHPF_RESET
 373:.\MPU6050/MPU6050.c ****  * @see MPU6050_RA_ACCEL_CONFIG
 374:.\MPU6050/MPU6050.c ****  */
 375:.\MPU6050/MPU6050.c **** void MPU6050_setDHPFMode(uint8_t bandwidth) {
 771              		.loc 1 375 0
 772              		.cfi_startproc
 773              		@ args = 0, pretend = 0, frame = 0
 774              		@ frame_needed = 0, uses_anonymous_args = 0
 775              	.LVL38:
 776 0000 00B5     		push	{lr}
 777              		.cfi_def_cfa_offset 4
 778              		.cfi_offset 14, -4
 779 0002 83B0     		sub	sp, sp, #12
 780              		.cfi_def_cfa_offset 16
 376:.\MPU6050/MPU6050.c ****     I2Cdev_writeBits(mpu6050.devAddr, MPU6050_RA_ACCEL_CONFIG, MPU6050_ACONFIG_ACCEL_HPF_BIT, MPU60
 781              		.loc 1 376 0
 782 0004 054B     		ldr	r3, .L82
 783 0006 1B78     		ldrb	r3, [r3]	@ zero_extendqisi2
 784 0008 0090     		str	r0, [sp]
 785 000a 1846     		mov	r0, r3
 786              	.LVL39:
 787 000c 1C21     		movs	r1, #28
 788 000e 0222     		movs	r2, #2
 789 0010 0323     		movs	r3, #3
 790 0012 FFF7FEFF 		bl	I2Cdev_writeBits
 791              	.LVL40:
 377:.\MPU6050/MPU6050.c **** }
 792              		.loc 1 377 0
 793 0016 03B0     		add	sp, sp, #12
 794              		.cfi_def_cfa_offset 4
 795              		@ sp needed
 796 0018 5DF804FB 		ldr	pc, [sp], #4
 797              	.L83:
 798              		.align	2
 799              	.L82:
 800 001c 00000000 		.word	mpu6050
 801              		.cfi_endproc
 802              	.LFE85:
 803              		.size	MPU6050_setDHPFMode, .-MPU6050_setDHPFMode
 804              		.section	.text.MPU6050_getFreefallDetectionThreshold,"ax",%progbits
 805              		.align	2
 806              		.global	MPU6050_getFreefallDetectionThreshold
 807              		.thumb
 808              		.thumb_func
 809              		.type	MPU6050_getFreefallDetectionThreshold, %function
 810              	MPU6050_getFreefallDetectionThreshold:
 811              	.LFB86:
 378:.\MPU6050/MPU6050.c **** 
 379:.\MPU6050/MPU6050.c **** // FF_THR register
 380:.\MPU6050/MPU6050.c **** 
 381:.\MPU6050/MPU6050.c **** /** Get free-fall event acceleration threshold.
 382:.\MPU6050/MPU6050.c ****  * This register configures the detection threshold for Free Fall event
 383:.\MPU6050/MPU6050.c ****  * detection. The unit of FF_THR is 1LSB = 2mg. Free Fall is detected when the
 384:.\MPU6050/MPU6050.c ****  * absolute value of the accelerometer measurements for the three axes are each
 385:.\MPU6050/MPU6050.c ****  * less than the detection threshold. This condition increments the Free Fall
 386:.\MPU6050/MPU6050.c ****  * duration counter (Register 30). The Free Fall interrupt is triggered when the
ARM GAS  C:\Users\satomin\AppData\Local\Temp\ccS6UKJQ.s 			page 22


 387:.\MPU6050/MPU6050.c ****  * Free Fall duration counter reaches the time specified in FF_DUR.
 388:.\MPU6050/MPU6050.c ****  *
 389:.\MPU6050/MPU6050.c ****  * For more details on the Free Fall detection interrupt, see Section 8.2 of the
 390:.\MPU6050/MPU6050.c ****  * MPU-6000/MPU-6050 Product Specification document as well as Registers 56 and
 391:.\MPU6050/MPU6050.c ****  * 58 of this document.
 392:.\MPU6050/MPU6050.c ****  *
 393:.\MPU6050/MPU6050.c ****  * @return Current free-fall acceleration threshold value (LSB = 2mg)
 394:.\MPU6050/MPU6050.c ****  * @see MPU6050_RA_FF_THR
 395:.\MPU6050/MPU6050.c ****  */
 396:.\MPU6050/MPU6050.c **** uint8_t MPU6050_getFreefallDetectionThreshold() {
 812              		.loc 1 396 0
 813              		.cfi_startproc
 814              		@ args = 0, pretend = 0, frame = 0
 815              		@ frame_needed = 0, uses_anonymous_args = 0
 816 0000 10B5     		push	{r4, lr}
 817              		.cfi_def_cfa_offset 8
 818              		.cfi_offset 4, -8
 819              		.cfi_offset 14, -4
 397:.\MPU6050/MPU6050.c ****     I2Cdev_readByte(mpu6050.devAddr, MPU6050_RA_FF_THR, mpu6050.buffer);
 820              		.loc 1 397 0
 821 0002 044C     		ldr	r4, .L86
 822 0004 2246     		mov	r2, r4
 823 0006 12F8010B 		ldrb	r0, [r2], #1	@ zero_extendqisi2
 824 000a 1D21     		movs	r1, #29
 825 000c FFF7FEFF 		bl	I2Cdev_readByte
 826              	.LVL41:
 398:.\MPU6050/MPU6050.c ****     return mpu6050.buffer[0];
 399:.\MPU6050/MPU6050.c **** }
 827              		.loc 1 399 0
 828 0010 6078     		ldrb	r0, [r4, #1]	@ zero_extendqisi2
 829 0012 10BD     		pop	{r4, pc}
 830              	.L87:
 831              		.align	2
 832              	.L86:
 833 0014 00000000 		.word	mpu6050
 834              		.cfi_endproc
 835              	.LFE86:
 836              		.size	MPU6050_getFreefallDetectionThreshold, .-MPU6050_getFreefallDetectionThreshold
 837              		.section	.text.MPU6050_setFreefallDetectionThreshold,"ax",%progbits
 838              		.align	2
 839              		.global	MPU6050_setFreefallDetectionThreshold
 840              		.thumb
 841              		.thumb_func
 842              		.type	MPU6050_setFreefallDetectionThreshold, %function
 843              	MPU6050_setFreefallDetectionThreshold:
 844              	.LFB87:
 400:.\MPU6050/MPU6050.c **** /** Get free-fall event acceleration threshold.
 401:.\MPU6050/MPU6050.c ****  * @param threshold New free-fall acceleration threshold value (LSB = 2mg)
 402:.\MPU6050/MPU6050.c ****  * @see getFreefallDetectionThreshold()
 403:.\MPU6050/MPU6050.c ****  * @see MPU6050_RA_FF_THR
 404:.\MPU6050/MPU6050.c ****  */
 405:.\MPU6050/MPU6050.c **** void MPU6050_setFreefallDetectionThreshold(uint8_t threshold) {
 845              		.loc 1 405 0
 846              		.cfi_startproc
 847              		@ args = 0, pretend = 0, frame = 0
 848              		@ frame_needed = 0, uses_anonymous_args = 0
 849              	.LVL42:
ARM GAS  C:\Users\satomin\AppData\Local\Temp\ccS6UKJQ.s 			page 23


 850 0000 08B5     		push	{r3, lr}
 851              		.cfi_def_cfa_offset 8
 852              		.cfi_offset 3, -8
 853              		.cfi_offset 14, -4
 854 0002 0246     		mov	r2, r0
 406:.\MPU6050/MPU6050.c ****     I2Cdev_writeByte(mpu6050.devAddr, MPU6050_RA_FF_THR, threshold);
 855              		.loc 1 406 0
 856 0004 024B     		ldr	r3, .L90
 857 0006 1878     		ldrb	r0, [r3]	@ zero_extendqisi2
 858              	.LVL43:
 859 0008 1D21     		movs	r1, #29
 860 000a FFF7FEFF 		bl	I2Cdev_writeByte
 861              	.LVL44:
 862 000e 08BD     		pop	{r3, pc}
 863              	.L91:
 864              		.align	2
 865              	.L90:
 866 0010 00000000 		.word	mpu6050
 867              		.cfi_endproc
 868              	.LFE87:
 869              		.size	MPU6050_setFreefallDetectionThreshold, .-MPU6050_setFreefallDetectionThreshold
 870              		.section	.text.MPU6050_getFreefallDetectionDuration,"ax",%progbits
 871              		.align	2
 872              		.global	MPU6050_getFreefallDetectionDuration
 873              		.thumb
 874              		.thumb_func
 875              		.type	MPU6050_getFreefallDetectionDuration, %function
 876              	MPU6050_getFreefallDetectionDuration:
 877              	.LFB88:
 407:.\MPU6050/MPU6050.c **** }
 408:.\MPU6050/MPU6050.c **** 
 409:.\MPU6050/MPU6050.c **** // FF_DUR register
 410:.\MPU6050/MPU6050.c **** 
 411:.\MPU6050/MPU6050.c **** /** Get free-fall event duration threshold.
 412:.\MPU6050/MPU6050.c ****  * This register configures the duration counter threshold for Free Fall event
 413:.\MPU6050/MPU6050.c ****  * detection. The duration counter ticks at 1kHz, therefore FF_DUR has a unit
 414:.\MPU6050/MPU6050.c ****  * of 1 LSB = 1 ms.
 415:.\MPU6050/MPU6050.c ****  *
 416:.\MPU6050/MPU6050.c ****  * The Free Fall duration counter increments while the absolute value of the
 417:.\MPU6050/MPU6050.c ****  * accelerometer measurements are each less than the detection threshold
 418:.\MPU6050/MPU6050.c ****  * (Register 29). The Free Fall interrupt is triggered when the Free Fall
 419:.\MPU6050/MPU6050.c ****  * duration counter reaches the time specified in this register.
 420:.\MPU6050/MPU6050.c ****  *
 421:.\MPU6050/MPU6050.c ****  * For more details on the Free Fall detection interrupt, see Section 8.2 of
 422:.\MPU6050/MPU6050.c ****  * the MPU-6000/MPU-6050 Product Specification document as well as Registers 56
 423:.\MPU6050/MPU6050.c ****  * and 58 of this document.
 424:.\MPU6050/MPU6050.c ****  *
 425:.\MPU6050/MPU6050.c ****  * @return Current free-fall duration threshold value (LSB = 1ms)
 426:.\MPU6050/MPU6050.c ****  * @see MPU6050_RA_FF_DUR
 427:.\MPU6050/MPU6050.c ****  */
 428:.\MPU6050/MPU6050.c **** uint8_t MPU6050_getFreefallDetectionDuration() {
 878              		.loc 1 428 0
 879              		.cfi_startproc
 880              		@ args = 0, pretend = 0, frame = 0
 881              		@ frame_needed = 0, uses_anonymous_args = 0
 882 0000 10B5     		push	{r4, lr}
 883              		.cfi_def_cfa_offset 8
ARM GAS  C:\Users\satomin\AppData\Local\Temp\ccS6UKJQ.s 			page 24


 884              		.cfi_offset 4, -8
 885              		.cfi_offset 14, -4
 429:.\MPU6050/MPU6050.c ****     I2Cdev_readByte(mpu6050.devAddr, MPU6050_RA_FF_DUR, mpu6050.buffer);
 886              		.loc 1 429 0
 887 0002 044C     		ldr	r4, .L94
 888 0004 2246     		mov	r2, r4
 889 0006 12F8010B 		ldrb	r0, [r2], #1	@ zero_extendqisi2
 890 000a 1E21     		movs	r1, #30
 891 000c FFF7FEFF 		bl	I2Cdev_readByte
 892              	.LVL45:
 430:.\MPU6050/MPU6050.c ****     return mpu6050.buffer[0];
 431:.\MPU6050/MPU6050.c **** }
 893              		.loc 1 431 0
 894 0010 6078     		ldrb	r0, [r4, #1]	@ zero_extendqisi2
 895 0012 10BD     		pop	{r4, pc}
 896              	.L95:
 897              		.align	2
 898              	.L94:
 899 0014 00000000 		.word	mpu6050
 900              		.cfi_endproc
 901              	.LFE88:
 902              		.size	MPU6050_getFreefallDetectionDuration, .-MPU6050_getFreefallDetectionDuration
 903              		.section	.text.MPU6050_setFreefallDetectionDuration,"ax",%progbits
 904              		.align	2
 905              		.global	MPU6050_setFreefallDetectionDuration
 906              		.thumb
 907              		.thumb_func
 908              		.type	MPU6050_setFreefallDetectionDuration, %function
 909              	MPU6050_setFreefallDetectionDuration:
 910              	.LFB89:
 432:.\MPU6050/MPU6050.c **** /** Get free-fall event duration threshold.
 433:.\MPU6050/MPU6050.c ****  * @param duration New free-fall duration threshold value (LSB = 1ms)
 434:.\MPU6050/MPU6050.c ****  * @see getFreefallDetectionDuration()
 435:.\MPU6050/MPU6050.c ****  * @see MPU6050_RA_FF_DUR
 436:.\MPU6050/MPU6050.c ****  */
 437:.\MPU6050/MPU6050.c **** void MPU6050_setFreefallDetectionDuration(uint8_t duration) {
 911              		.loc 1 437 0
 912              		.cfi_startproc
 913              		@ args = 0, pretend = 0, frame = 0
 914              		@ frame_needed = 0, uses_anonymous_args = 0
 915              	.LVL46:
 916 0000 08B5     		push	{r3, lr}
 917              		.cfi_def_cfa_offset 8
 918              		.cfi_offset 3, -8
 919              		.cfi_offset 14, -4
 920 0002 0246     		mov	r2, r0
 438:.\MPU6050/MPU6050.c ****     I2Cdev_writeByte(mpu6050.devAddr, MPU6050_RA_FF_DUR, duration);
 921              		.loc 1 438 0
 922 0004 024B     		ldr	r3, .L98
 923 0006 1878     		ldrb	r0, [r3]	@ zero_extendqisi2
 924              	.LVL47:
 925 0008 1E21     		movs	r1, #30
 926 000a FFF7FEFF 		bl	I2Cdev_writeByte
 927              	.LVL48:
 928 000e 08BD     		pop	{r3, pc}
 929              	.L99:
 930              		.align	2
ARM GAS  C:\Users\satomin\AppData\Local\Temp\ccS6UKJQ.s 			page 25


 931              	.L98:
 932 0010 00000000 		.word	mpu6050
 933              		.cfi_endproc
 934              	.LFE89:
 935              		.size	MPU6050_setFreefallDetectionDuration, .-MPU6050_setFreefallDetectionDuration
 936              		.section	.text.MPU6050_getMotionDetectionThreshold,"ax",%progbits
 937              		.align	2
 938              		.global	MPU6050_getMotionDetectionThreshold
 939              		.thumb
 940              		.thumb_func
 941              		.type	MPU6050_getMotionDetectionThreshold, %function
 942              	MPU6050_getMotionDetectionThreshold:
 943              	.LFB90:
 439:.\MPU6050/MPU6050.c **** }
 440:.\MPU6050/MPU6050.c **** 
 441:.\MPU6050/MPU6050.c **** // MOT_THR register
 442:.\MPU6050/MPU6050.c **** 
 443:.\MPU6050/MPU6050.c **** /** Get motion detection event acceleration threshold.
 444:.\MPU6050/MPU6050.c ****  * This register configures the detection threshold for Motion interrupt
 445:.\MPU6050/MPU6050.c ****  * generation. The unit of MOT_THR is 1LSB = 2mg. Motion is detected when the
 446:.\MPU6050/MPU6050.c ****  * absolute value of any of the accelerometer measurements exceeds this Motion
 447:.\MPU6050/MPU6050.c ****  * detection threshold. This condition increments the Motion detection duration
 448:.\MPU6050/MPU6050.c ****  * counter (Register 32). The Motion detection interrupt is triggered when the
 449:.\MPU6050/MPU6050.c ****  * Motion Detection counter reaches the time count specified in MOT_DUR
 450:.\MPU6050/MPU6050.c ****  * (Register 32).
 451:.\MPU6050/MPU6050.c ****  *
 452:.\MPU6050/MPU6050.c ****  * The Motion interrupt will indicate the axis and polarity of detected motion
 453:.\MPU6050/MPU6050.c ****  * in MOT_DETECT_STATUS (Register 97).
 454:.\MPU6050/MPU6050.c ****  *
 455:.\MPU6050/MPU6050.c ****  * For more details on the Motion detection interrupt, see Section 8.3 of the
 456:.\MPU6050/MPU6050.c ****  * MPU-6000/MPU-6050 Product Specification document as well as Registers 56 and
 457:.\MPU6050/MPU6050.c ****  * 58 of this document.
 458:.\MPU6050/MPU6050.c ****  *
 459:.\MPU6050/MPU6050.c ****  * @return Current motion detection acceleration threshold value (LSB = 2mg)
 460:.\MPU6050/MPU6050.c ****  * @see MPU6050_RA_MOT_THR
 461:.\MPU6050/MPU6050.c ****  */
 462:.\MPU6050/MPU6050.c **** uint8_t MPU6050_getMotionDetectionThreshold() {
 944              		.loc 1 462 0
 945              		.cfi_startproc
 946              		@ args = 0, pretend = 0, frame = 0
 947              		@ frame_needed = 0, uses_anonymous_args = 0
 948 0000 10B5     		push	{r4, lr}
 949              		.cfi_def_cfa_offset 8
 950              		.cfi_offset 4, -8
 951              		.cfi_offset 14, -4
 463:.\MPU6050/MPU6050.c ****     I2Cdev_readByte(mpu6050.devAddr, MPU6050_RA_MOT_THR, mpu6050.buffer);
 952              		.loc 1 463 0
 953 0002 044C     		ldr	r4, .L102
 954 0004 2246     		mov	r2, r4
 955 0006 12F8010B 		ldrb	r0, [r2], #1	@ zero_extendqisi2
 956 000a 1F21     		movs	r1, #31
 957 000c FFF7FEFF 		bl	I2Cdev_readByte
 958              	.LVL49:
 464:.\MPU6050/MPU6050.c ****     return mpu6050.buffer[0];
 465:.\MPU6050/MPU6050.c **** }
 959              		.loc 1 465 0
 960 0010 6078     		ldrb	r0, [r4, #1]	@ zero_extendqisi2
ARM GAS  C:\Users\satomin\AppData\Local\Temp\ccS6UKJQ.s 			page 26


 961 0012 10BD     		pop	{r4, pc}
 962              	.L103:
 963              		.align	2
 964              	.L102:
 965 0014 00000000 		.word	mpu6050
 966              		.cfi_endproc
 967              	.LFE90:
 968              		.size	MPU6050_getMotionDetectionThreshold, .-MPU6050_getMotionDetectionThreshold
 969              		.section	.text.MPU6050_setMotionDetectionThreshold,"ax",%progbits
 970              		.align	2
 971              		.global	MPU6050_setMotionDetectionThreshold
 972              		.thumb
 973              		.thumb_func
 974              		.type	MPU6050_setMotionDetectionThreshold, %function
 975              	MPU6050_setMotionDetectionThreshold:
 976              	.LFB91:
 466:.\MPU6050/MPU6050.c **** /** Set free-fall event acceleration threshold.
 467:.\MPU6050/MPU6050.c ****  * @param threshold New motion detection acceleration threshold value (LSB = 2mg)
 468:.\MPU6050/MPU6050.c ****  * @see getMotionDetectionThreshold()
 469:.\MPU6050/MPU6050.c ****  * @see MPU6050_RA_MOT_THR
 470:.\MPU6050/MPU6050.c ****  */
 471:.\MPU6050/MPU6050.c **** void MPU6050_setMotionDetectionThreshold(uint8_t threshold) {
 977              		.loc 1 471 0
 978              		.cfi_startproc
 979              		@ args = 0, pretend = 0, frame = 0
 980              		@ frame_needed = 0, uses_anonymous_args = 0
 981              	.LVL50:
 982 0000 08B5     		push	{r3, lr}
 983              		.cfi_def_cfa_offset 8
 984              		.cfi_offset 3, -8
 985              		.cfi_offset 14, -4
 986 0002 0246     		mov	r2, r0
 472:.\MPU6050/MPU6050.c ****     I2Cdev_writeByte(mpu6050.devAddr, MPU6050_RA_MOT_THR, threshold);
 987              		.loc 1 472 0
 988 0004 024B     		ldr	r3, .L106
 989 0006 1878     		ldrb	r0, [r3]	@ zero_extendqisi2
 990              	.LVL51:
 991 0008 1F21     		movs	r1, #31
 992 000a FFF7FEFF 		bl	I2Cdev_writeByte
 993              	.LVL52:
 994 000e 08BD     		pop	{r3, pc}
 995              	.L107:
 996              		.align	2
 997              	.L106:
 998 0010 00000000 		.word	mpu6050
 999              		.cfi_endproc
 1000              	.LFE91:
 1001              		.size	MPU6050_setMotionDetectionThreshold, .-MPU6050_setMotionDetectionThreshold
 1002              		.section	.text.MPU6050_getMotionDetectionDuration,"ax",%progbits
 1003              		.align	2
 1004              		.global	MPU6050_getMotionDetectionDuration
 1005              		.thumb
 1006              		.thumb_func
 1007              		.type	MPU6050_getMotionDetectionDuration, %function
 1008              	MPU6050_getMotionDetectionDuration:
 1009              	.LFB92:
 473:.\MPU6050/MPU6050.c **** }
ARM GAS  C:\Users\satomin\AppData\Local\Temp\ccS6UKJQ.s 			page 27


 474:.\MPU6050/MPU6050.c **** 
 475:.\MPU6050/MPU6050.c **** // MOT_DUR register
 476:.\MPU6050/MPU6050.c **** 
 477:.\MPU6050/MPU6050.c **** /** Get motion detection event duration threshold.
 478:.\MPU6050/MPU6050.c ****  * This register configures the duration counter threshold for Motion interrupt
 479:.\MPU6050/MPU6050.c ****  * generation. The duration counter ticks at 1 kHz, therefore MOT_DUR has a unit
 480:.\MPU6050/MPU6050.c ****  * of 1LSB = 1ms. The Motion detection duration counter increments when the
 481:.\MPU6050/MPU6050.c ****  * absolute value of any of the accelerometer measurements exceeds the Motion
 482:.\MPU6050/MPU6050.c ****  * detection threshold (Register 31). The Motion detection interrupt is
 483:.\MPU6050/MPU6050.c ****  * triggered when the Motion detection counter reaches the time count specified
 484:.\MPU6050/MPU6050.c ****  * in this register.
 485:.\MPU6050/MPU6050.c ****  *
 486:.\MPU6050/MPU6050.c ****  * For more details on the Motion detection interrupt, see Section 8.3 of the
 487:.\MPU6050/MPU6050.c ****  * MPU-6000/MPU-6050 Product Specification document.
 488:.\MPU6050/MPU6050.c ****  *
 489:.\MPU6050/MPU6050.c ****  * @return Current motion detection duration threshold value (LSB = 1ms)
 490:.\MPU6050/MPU6050.c ****  * @see MPU6050_RA_MOT_DUR
 491:.\MPU6050/MPU6050.c ****  */
 492:.\MPU6050/MPU6050.c **** uint8_t MPU6050_getMotionDetectionDuration() {
 1010              		.loc 1 492 0
 1011              		.cfi_startproc
 1012              		@ args = 0, pretend = 0, frame = 0
 1013              		@ frame_needed = 0, uses_anonymous_args = 0
 1014 0000 10B5     		push	{r4, lr}
 1015              		.cfi_def_cfa_offset 8
 1016              		.cfi_offset 4, -8
 1017              		.cfi_offset 14, -4
 493:.\MPU6050/MPU6050.c ****     I2Cdev_readByte(mpu6050.devAddr, MPU6050_RA_MOT_DUR, mpu6050.buffer);
 1018              		.loc 1 493 0
 1019 0002 044C     		ldr	r4, .L110
 1020 0004 2246     		mov	r2, r4
 1021 0006 12F8010B 		ldrb	r0, [r2], #1	@ zero_extendqisi2
 1022 000a 2021     		movs	r1, #32
 1023 000c FFF7FEFF 		bl	I2Cdev_readByte
 1024              	.LVL53:
 494:.\MPU6050/MPU6050.c ****     return mpu6050.buffer[0];
 495:.\MPU6050/MPU6050.c **** }
 1025              		.loc 1 495 0
 1026 0010 6078     		ldrb	r0, [r4, #1]	@ zero_extendqisi2
 1027 0012 10BD     		pop	{r4, pc}
 1028              	.L111:
 1029              		.align	2
 1030              	.L110:
 1031 0014 00000000 		.word	mpu6050
 1032              		.cfi_endproc
 1033              	.LFE92:
 1034              		.size	MPU6050_getMotionDetectionDuration, .-MPU6050_getMotionDetectionDuration
 1035              		.section	.text.MPU6050_setMotionDetectionDuration,"ax",%progbits
 1036              		.align	2
 1037              		.global	MPU6050_setMotionDetectionDuration
 1038              		.thumb
 1039              		.thumb_func
 1040              		.type	MPU6050_setMotionDetectionDuration, %function
 1041              	MPU6050_setMotionDetectionDuration:
 1042              	.LFB93:
 496:.\MPU6050/MPU6050.c **** /** Set motion detection event duration threshold.
 497:.\MPU6050/MPU6050.c ****  * @param duration New motion detection duration threshold value (LSB = 1ms)
ARM GAS  C:\Users\satomin\AppData\Local\Temp\ccS6UKJQ.s 			page 28


 498:.\MPU6050/MPU6050.c ****  * @see getMotionDetectionDuration()
 499:.\MPU6050/MPU6050.c ****  * @see MPU6050_RA_MOT_DUR
 500:.\MPU6050/MPU6050.c ****  */
 501:.\MPU6050/MPU6050.c **** void MPU6050_setMotionDetectionDuration(uint8_t duration) {
 1043              		.loc 1 501 0
 1044              		.cfi_startproc
 1045              		@ args = 0, pretend = 0, frame = 0
 1046              		@ frame_needed = 0, uses_anonymous_args = 0
 1047              	.LVL54:
 1048 0000 08B5     		push	{r3, lr}
 1049              		.cfi_def_cfa_offset 8
 1050              		.cfi_offset 3, -8
 1051              		.cfi_offset 14, -4
 1052 0002 0246     		mov	r2, r0
 502:.\MPU6050/MPU6050.c ****     I2Cdev_writeByte(mpu6050.devAddr, MPU6050_RA_MOT_DUR, duration);
 1053              		.loc 1 502 0
 1054 0004 024B     		ldr	r3, .L114
 1055 0006 1878     		ldrb	r0, [r3]	@ zero_extendqisi2
 1056              	.LVL55:
 1057 0008 2021     		movs	r1, #32
 1058 000a FFF7FEFF 		bl	I2Cdev_writeByte
 1059              	.LVL56:
 1060 000e 08BD     		pop	{r3, pc}
 1061              	.L115:
 1062              		.align	2
 1063              	.L114:
 1064 0010 00000000 		.word	mpu6050
 1065              		.cfi_endproc
 1066              	.LFE93:
 1067              		.size	MPU6050_setMotionDetectionDuration, .-MPU6050_setMotionDetectionDuration
 1068              		.section	.text.MPU6050_getZeroMotionDetectionThreshold,"ax",%progbits
 1069              		.align	2
 1070              		.global	MPU6050_getZeroMotionDetectionThreshold
 1071              		.thumb
 1072              		.thumb_func
 1073              		.type	MPU6050_getZeroMotionDetectionThreshold, %function
 1074              	MPU6050_getZeroMotionDetectionThreshold:
 1075              	.LFB94:
 503:.\MPU6050/MPU6050.c **** }
 504:.\MPU6050/MPU6050.c **** 
 505:.\MPU6050/MPU6050.c **** // ZRMOT_THR register
 506:.\MPU6050/MPU6050.c **** 
 507:.\MPU6050/MPU6050.c **** /** Get zero motion detection event acceleration threshold.
 508:.\MPU6050/MPU6050.c ****  * This register configures the detection threshold for Zero Motion interrupt
 509:.\MPU6050/MPU6050.c ****  * generation. The unit of ZRMOT_THR is 1LSB = 2mg. Zero Motion is detected when
 510:.\MPU6050/MPU6050.c ****  * the absolute value of the accelerometer measurements for the 3 axes are each
 511:.\MPU6050/MPU6050.c ****  * less than the detection threshold. This condition increments the Zero Motion
 512:.\MPU6050/MPU6050.c ****  * duration counter (Register 34). The Zero Motion interrupt is triggered when
 513:.\MPU6050/MPU6050.c ****  * the Zero Motion duration counter reaches the time count specified in
 514:.\MPU6050/MPU6050.c ****  * ZRMOT_DUR (Register 34).
 515:.\MPU6050/MPU6050.c ****  *
 516:.\MPU6050/MPU6050.c ****  * Unlike Free Fall or Motion detection, Zero Motion detection triggers an
 517:.\MPU6050/MPU6050.c ****  * interrupt both when Zero Motion is first detected and when Zero Motion is no
 518:.\MPU6050/MPU6050.c ****  * longer detected.
 519:.\MPU6050/MPU6050.c ****  *
 520:.\MPU6050/MPU6050.c ****  * When a zero motion event is detected, a Zero Motion Status will be indicated
 521:.\MPU6050/MPU6050.c ****  * in the MOT_DETECT_STATUS register (Register 97). When a motion-to-zero-motion
ARM GAS  C:\Users\satomin\AppData\Local\Temp\ccS6UKJQ.s 			page 29


 522:.\MPU6050/MPU6050.c ****  * condition is detected, the status bit is set to 1. When a zero-motion-to-
 523:.\MPU6050/MPU6050.c ****  * motion condition is detected, the status bit is set to 0.
 524:.\MPU6050/MPU6050.c ****  *
 525:.\MPU6050/MPU6050.c ****  * For more details on the Zero Motion detection interrupt, see Section 8.4 of
 526:.\MPU6050/MPU6050.c ****  * the MPU-6000/MPU-6050 Product Specification document as well as Registers 56
 527:.\MPU6050/MPU6050.c ****  * and 58 of this document.
 528:.\MPU6050/MPU6050.c ****  *
 529:.\MPU6050/MPU6050.c ****  * @return Current zero motion detection acceleration threshold value (LSB = 2mg)
 530:.\MPU6050/MPU6050.c ****  * @see MPU6050_RA_ZRMOT_THR
 531:.\MPU6050/MPU6050.c ****  */
 532:.\MPU6050/MPU6050.c **** uint8_t MPU6050_getZeroMotionDetectionThreshold() {
 1076              		.loc 1 532 0
 1077              		.cfi_startproc
 1078              		@ args = 0, pretend = 0, frame = 0
 1079              		@ frame_needed = 0, uses_anonymous_args = 0
 1080 0000 10B5     		push	{r4, lr}
 1081              		.cfi_def_cfa_offset 8
 1082              		.cfi_offset 4, -8
 1083              		.cfi_offset 14, -4
 533:.\MPU6050/MPU6050.c ****     I2Cdev_readByte(mpu6050.devAddr, MPU6050_RA_ZRMOT_THR, mpu6050.buffer);
 1084              		.loc 1 533 0
 1085 0002 044C     		ldr	r4, .L118
 1086 0004 2246     		mov	r2, r4
 1087 0006 12F8010B 		ldrb	r0, [r2], #1	@ zero_extendqisi2
 1088 000a 2121     		movs	r1, #33
 1089 000c FFF7FEFF 		bl	I2Cdev_readByte
 1090              	.LVL57:
 534:.\MPU6050/MPU6050.c ****     return mpu6050.buffer[0];
 535:.\MPU6050/MPU6050.c **** }
 1091              		.loc 1 535 0
 1092 0010 6078     		ldrb	r0, [r4, #1]	@ zero_extendqisi2
 1093 0012 10BD     		pop	{r4, pc}
 1094              	.L119:
 1095              		.align	2
 1096              	.L118:
 1097 0014 00000000 		.word	mpu6050
 1098              		.cfi_endproc
 1099              	.LFE94:
 1100              		.size	MPU6050_getZeroMotionDetectionThreshold, .-MPU6050_getZeroMotionDetectionThreshold
 1101              		.section	.text.MPU6050_setZeroMotionDetectionThreshold,"ax",%progbits
 1102              		.align	2
 1103              		.global	MPU6050_setZeroMotionDetectionThreshold
 1104              		.thumb
 1105              		.thumb_func
 1106              		.type	MPU6050_setZeroMotionDetectionThreshold, %function
 1107              	MPU6050_setZeroMotionDetectionThreshold:
 1108              	.LFB95:
 536:.\MPU6050/MPU6050.c **** /** Set zero motion detection event acceleration threshold.
 537:.\MPU6050/MPU6050.c ****  * @param threshold New zero motion detection acceleration threshold value (LSB = 2mg)
 538:.\MPU6050/MPU6050.c ****  * @see getZeroMotionDetectionThreshold()
 539:.\MPU6050/MPU6050.c ****  * @see MPU6050_RA_ZRMOT_THR
 540:.\MPU6050/MPU6050.c ****  */
 541:.\MPU6050/MPU6050.c **** void MPU6050_setZeroMotionDetectionThreshold(uint8_t threshold) {
 1109              		.loc 1 541 0
 1110              		.cfi_startproc
 1111              		@ args = 0, pretend = 0, frame = 0
 1112              		@ frame_needed = 0, uses_anonymous_args = 0
ARM GAS  C:\Users\satomin\AppData\Local\Temp\ccS6UKJQ.s 			page 30


 1113              	.LVL58:
 1114 0000 08B5     		push	{r3, lr}
 1115              		.cfi_def_cfa_offset 8
 1116              		.cfi_offset 3, -8
 1117              		.cfi_offset 14, -4
 1118 0002 0246     		mov	r2, r0
 542:.\MPU6050/MPU6050.c ****     I2Cdev_writeByte(mpu6050.devAddr, MPU6050_RA_ZRMOT_THR, threshold);
 1119              		.loc 1 542 0
 1120 0004 024B     		ldr	r3, .L122
 1121 0006 1878     		ldrb	r0, [r3]	@ zero_extendqisi2
 1122              	.LVL59:
 1123 0008 2121     		movs	r1, #33
 1124 000a FFF7FEFF 		bl	I2Cdev_writeByte
 1125              	.LVL60:
 1126 000e 08BD     		pop	{r3, pc}
 1127              	.L123:
 1128              		.align	2
 1129              	.L122:
 1130 0010 00000000 		.word	mpu6050
 1131              		.cfi_endproc
 1132              	.LFE95:
 1133              		.size	MPU6050_setZeroMotionDetectionThreshold, .-MPU6050_setZeroMotionDetectionThreshold
 1134              		.section	.text.MPU6050_getZeroMotionDetectionDuration,"ax",%progbits
 1135              		.align	2
 1136              		.global	MPU6050_getZeroMotionDetectionDuration
 1137              		.thumb
 1138              		.thumb_func
 1139              		.type	MPU6050_getZeroMotionDetectionDuration, %function
 1140              	MPU6050_getZeroMotionDetectionDuration:
 1141              	.LFB96:
 543:.\MPU6050/MPU6050.c **** }
 544:.\MPU6050/MPU6050.c **** 
 545:.\MPU6050/MPU6050.c **** // ZRMOT_DUR register
 546:.\MPU6050/MPU6050.c **** 
 547:.\MPU6050/MPU6050.c **** /** Get zero motion detection event duration threshold.
 548:.\MPU6050/MPU6050.c ****  * This register configures the duration counter threshold for Zero Motion
 549:.\MPU6050/MPU6050.c ****  * interrupt generation. The duration counter ticks at 16 Hz, therefore
 550:.\MPU6050/MPU6050.c ****  * ZRMOT_DUR has a unit of 1 LSB = 64 ms. The Zero Motion duration counter
 551:.\MPU6050/MPU6050.c ****  * increments while the absolute value of the accelerometer measurements are
 552:.\MPU6050/MPU6050.c ****  * each less than the detection threshold (Register 33). The Zero Motion
 553:.\MPU6050/MPU6050.c ****  * interrupt is triggered when the Zero Motion duration counter reaches the time
 554:.\MPU6050/MPU6050.c ****  * count specified in this register.
 555:.\MPU6050/MPU6050.c ****  *
 556:.\MPU6050/MPU6050.c ****  * For more details on the Zero Motion detection interrupt, see Section 8.4 of
 557:.\MPU6050/MPU6050.c ****  * the MPU-6000/MPU-6050 Product Specification document, as well as Registers 56
 558:.\MPU6050/MPU6050.c ****  * and 58 of this document.
 559:.\MPU6050/MPU6050.c ****  *
 560:.\MPU6050/MPU6050.c ****  * @return Current zero motion detection duration threshold value (LSB = 64ms)
 561:.\MPU6050/MPU6050.c ****  * @see MPU6050_RA_ZRMOT_DUR
 562:.\MPU6050/MPU6050.c ****  */
 563:.\MPU6050/MPU6050.c **** uint8_t MPU6050_getZeroMotionDetectionDuration() {
 1142              		.loc 1 563 0
 1143              		.cfi_startproc
 1144              		@ args = 0, pretend = 0, frame = 0
 1145              		@ frame_needed = 0, uses_anonymous_args = 0
 1146 0000 10B5     		push	{r4, lr}
 1147              		.cfi_def_cfa_offset 8
ARM GAS  C:\Users\satomin\AppData\Local\Temp\ccS6UKJQ.s 			page 31


 1148              		.cfi_offset 4, -8
 1149              		.cfi_offset 14, -4
 564:.\MPU6050/MPU6050.c ****     I2Cdev_readByte(mpu6050.devAddr, MPU6050_RA_ZRMOT_DUR, mpu6050.buffer);
 1150              		.loc 1 564 0
 1151 0002 044C     		ldr	r4, .L126
 1152 0004 2246     		mov	r2, r4
 1153 0006 12F8010B 		ldrb	r0, [r2], #1	@ zero_extendqisi2
 1154 000a 2221     		movs	r1, #34
 1155 000c FFF7FEFF 		bl	I2Cdev_readByte
 1156              	.LVL61:
 565:.\MPU6050/MPU6050.c ****     return mpu6050.buffer[0];
 566:.\MPU6050/MPU6050.c **** }
 1157              		.loc 1 566 0
 1158 0010 6078     		ldrb	r0, [r4, #1]	@ zero_extendqisi2
 1159 0012 10BD     		pop	{r4, pc}
 1160              	.L127:
 1161              		.align	2
 1162              	.L126:
 1163 0014 00000000 		.word	mpu6050
 1164              		.cfi_endproc
 1165              	.LFE96:
 1166              		.size	MPU6050_getZeroMotionDetectionDuration, .-MPU6050_getZeroMotionDetectionDuration
 1167              		.section	.text.MPU6050_setZeroMotionDetectionDuration,"ax",%progbits
 1168              		.align	2
 1169              		.global	MPU6050_setZeroMotionDetectionDuration
 1170              		.thumb
 1171              		.thumb_func
 1172              		.type	MPU6050_setZeroMotionDetectionDuration, %function
 1173              	MPU6050_setZeroMotionDetectionDuration:
 1174              	.LFB97:
 567:.\MPU6050/MPU6050.c **** /** Set zero motion detection event duration threshold.
 568:.\MPU6050/MPU6050.c ****  * @param duration New zero motion detection duration threshold value (LSB = 1ms)
 569:.\MPU6050/MPU6050.c ****  * @see getZeroMotionDetectionDuration()
 570:.\MPU6050/MPU6050.c ****  * @see MPU6050_RA_ZRMOT_DUR
 571:.\MPU6050/MPU6050.c ****  */
 572:.\MPU6050/MPU6050.c **** void MPU6050_setZeroMotionDetectionDuration(uint8_t duration) {
 1175              		.loc 1 572 0
 1176              		.cfi_startproc
 1177              		@ args = 0, pretend = 0, frame = 0
 1178              		@ frame_needed = 0, uses_anonymous_args = 0
 1179              	.LVL62:
 1180 0000 08B5     		push	{r3, lr}
 1181              		.cfi_def_cfa_offset 8
 1182              		.cfi_offset 3, -8
 1183              		.cfi_offset 14, -4
 1184 0002 0246     		mov	r2, r0
 573:.\MPU6050/MPU6050.c ****     I2Cdev_writeByte(mpu6050.devAddr, MPU6050_RA_ZRMOT_DUR, duration);
 1185              		.loc 1 573 0
 1186 0004 024B     		ldr	r3, .L130
 1187 0006 1878     		ldrb	r0, [r3]	@ zero_extendqisi2
 1188              	.LVL63:
 1189 0008 2221     		movs	r1, #34
 1190 000a FFF7FEFF 		bl	I2Cdev_writeByte
 1191              	.LVL64:
 1192 000e 08BD     		pop	{r3, pc}
 1193              	.L131:
 1194              		.align	2
ARM GAS  C:\Users\satomin\AppData\Local\Temp\ccS6UKJQ.s 			page 32


 1195              	.L130:
 1196 0010 00000000 		.word	mpu6050
 1197              		.cfi_endproc
 1198              	.LFE97:
 1199              		.size	MPU6050_setZeroMotionDetectionDuration, .-MPU6050_setZeroMotionDetectionDuration
 1200              		.section	.text.MPU6050_getTempFIFOEnabled,"ax",%progbits
 1201              		.align	2
 1202              		.global	MPU6050_getTempFIFOEnabled
 1203              		.thumb
 1204              		.thumb_func
 1205              		.type	MPU6050_getTempFIFOEnabled, %function
 1206              	MPU6050_getTempFIFOEnabled:
 1207              	.LFB98:
 574:.\MPU6050/MPU6050.c **** }
 575:.\MPU6050/MPU6050.c **** 
 576:.\MPU6050/MPU6050.c **** // FIFO_EN register
 577:.\MPU6050/MPU6050.c **** 
 578:.\MPU6050/MPU6050.c **** /** Get temperature FIFO enabled value.
 579:.\MPU6050/MPU6050.c ****  * When set to 1, this bit enables TEMP_OUT_H and TEMP_OUT_L (Registers 65 and
 580:.\MPU6050/MPU6050.c ****  * 66) to be written into the FIFO mpu6050.buffer.
 581:.\MPU6050/MPU6050.c ****  * @return Current temperature FIFO enabled value
 582:.\MPU6050/MPU6050.c ****  * @see MPU6050_RA_FIFO_EN
 583:.\MPU6050/MPU6050.c ****  */
 584:.\MPU6050/MPU6050.c **** bool MPU6050_getTempFIFOEnabled() {
 1208              		.loc 1 584 0
 1209              		.cfi_startproc
 1210              		@ args = 0, pretend = 0, frame = 0
 1211              		@ frame_needed = 0, uses_anonymous_args = 0
 1212 0000 10B5     		push	{r4, lr}
 1213              		.cfi_def_cfa_offset 8
 1214              		.cfi_offset 4, -8
 1215              		.cfi_offset 14, -4
 585:.\MPU6050/MPU6050.c ****     I2Cdev_readBit(mpu6050.devAddr, MPU6050_RA_FIFO_EN, MPU6050_TEMP_FIFO_EN_BIT, mpu6050.buffer);
 1216              		.loc 1 585 0
 1217 0002 064C     		ldr	r4, .L134
 1218 0004 2346     		mov	r3, r4
 1219 0006 13F8010B 		ldrb	r0, [r3], #1	@ zero_extendqisi2
 1220 000a 2321     		movs	r1, #35
 1221 000c 0722     		movs	r2, #7
 1222 000e FFF7FEFF 		bl	I2Cdev_readBit
 1223              	.LVL65:
 586:.\MPU6050/MPU6050.c ****     return mpu6050.buffer[0];
 1224              		.loc 1 586 0
 1225 0012 6078     		ldrb	r0, [r4, #1]	@ zero_extendqisi2
 587:.\MPU6050/MPU6050.c **** }
 1226              		.loc 1 587 0
 1227 0014 0030     		adds	r0, r0, #0
 1228 0016 18BF     		it	ne
 1229 0018 0120     		movne	r0, #1
 1230 001a 10BD     		pop	{r4, pc}
 1231              	.L135:
 1232              		.align	2
 1233              	.L134:
 1234 001c 00000000 		.word	mpu6050
 1235              		.cfi_endproc
 1236              	.LFE98:
 1237              		.size	MPU6050_getTempFIFOEnabled, .-MPU6050_getTempFIFOEnabled
ARM GAS  C:\Users\satomin\AppData\Local\Temp\ccS6UKJQ.s 			page 33


 1238              		.section	.text.MPU6050_setTempFIFOEnabled,"ax",%progbits
 1239              		.align	2
 1240              		.global	MPU6050_setTempFIFOEnabled
 1241              		.thumb
 1242              		.thumb_func
 1243              		.type	MPU6050_setTempFIFOEnabled, %function
 1244              	MPU6050_setTempFIFOEnabled:
 1245              	.LFB99:
 588:.\MPU6050/MPU6050.c **** /** Set temperature FIFO enabled value.
 589:.\MPU6050/MPU6050.c ****  * @param enabled New temperature FIFO enabled value
 590:.\MPU6050/MPU6050.c ****  * @see getTempFIFOEnabled()
 591:.\MPU6050/MPU6050.c ****  * @see MPU6050_RA_FIFO_EN
 592:.\MPU6050/MPU6050.c ****  */
 593:.\MPU6050/MPU6050.c **** void MPU6050_setTempFIFOEnabled(bool enabled) {
 1246              		.loc 1 593 0
 1247              		.cfi_startproc
 1248              		@ args = 0, pretend = 0, frame = 0
 1249              		@ frame_needed = 0, uses_anonymous_args = 0
 1250              	.LVL66:
 1251 0000 08B5     		push	{r3, lr}
 1252              		.cfi_def_cfa_offset 8
 1253              		.cfi_offset 3, -8
 1254              		.cfi_offset 14, -4
 1255 0002 0346     		mov	r3, r0
 594:.\MPU6050/MPU6050.c ****     I2Cdev_writeBit(mpu6050.devAddr, MPU6050_RA_FIFO_EN, MPU6050_TEMP_FIFO_EN_BIT, enabled);
 1256              		.loc 1 594 0
 1257 0004 034A     		ldr	r2, .L138
 1258 0006 1078     		ldrb	r0, [r2]	@ zero_extendqisi2
 1259              	.LVL67:
 1260 0008 2321     		movs	r1, #35
 1261 000a 0722     		movs	r2, #7
 1262 000c FFF7FEFF 		bl	I2Cdev_writeBit
 1263              	.LVL68:
 1264 0010 08BD     		pop	{r3, pc}
 1265              	.L139:
 1266 0012 00BF     		.align	2
 1267              	.L138:
 1268 0014 00000000 		.word	mpu6050
 1269              		.cfi_endproc
 1270              	.LFE99:
 1271              		.size	MPU6050_setTempFIFOEnabled, .-MPU6050_setTempFIFOEnabled
 1272              		.section	.text.MPU6050_getXGyroFIFOEnabled,"ax",%progbits
 1273              		.align	2
 1274              		.global	MPU6050_getXGyroFIFOEnabled
 1275              		.thumb
 1276              		.thumb_func
 1277              		.type	MPU6050_getXGyroFIFOEnabled, %function
 1278              	MPU6050_getXGyroFIFOEnabled:
 1279              	.LFB100:
 595:.\MPU6050/MPU6050.c **** }
 596:.\MPU6050/MPU6050.c **** /** Get gyroscope X-axis FIFO enabled value.
 597:.\MPU6050/MPU6050.c ****  * When set to 1, this bit enables GYRO_XOUT_H and GYRO_XOUT_L (Registers 67 and
 598:.\MPU6050/MPU6050.c ****  * 68) to be written into the FIFO mpu6050.buffer.
 599:.\MPU6050/MPU6050.c ****  * @return Current gyroscope X-axis FIFO enabled value
 600:.\MPU6050/MPU6050.c ****  * @see MPU6050_RA_FIFO_EN
 601:.\MPU6050/MPU6050.c ****  */
 602:.\MPU6050/MPU6050.c **** bool MPU6050_getXGyroFIFOEnabled() {
ARM GAS  C:\Users\satomin\AppData\Local\Temp\ccS6UKJQ.s 			page 34


 1280              		.loc 1 602 0
 1281              		.cfi_startproc
 1282              		@ args = 0, pretend = 0, frame = 0
 1283              		@ frame_needed = 0, uses_anonymous_args = 0
 1284 0000 10B5     		push	{r4, lr}
 1285              		.cfi_def_cfa_offset 8
 1286              		.cfi_offset 4, -8
 1287              		.cfi_offset 14, -4
 603:.\MPU6050/MPU6050.c ****     I2Cdev_readBit(mpu6050.devAddr, MPU6050_RA_FIFO_EN, MPU6050_XG_FIFO_EN_BIT, mpu6050.buffer);
 1288              		.loc 1 603 0
 1289 0002 064C     		ldr	r4, .L142
 1290 0004 2346     		mov	r3, r4
 1291 0006 13F8010B 		ldrb	r0, [r3], #1	@ zero_extendqisi2
 1292 000a 2321     		movs	r1, #35
 1293 000c 0622     		movs	r2, #6
 1294 000e FFF7FEFF 		bl	I2Cdev_readBit
 1295              	.LVL69:
 604:.\MPU6050/MPU6050.c ****     return mpu6050.buffer[0];
 1296              		.loc 1 604 0
 1297 0012 6078     		ldrb	r0, [r4, #1]	@ zero_extendqisi2
 605:.\MPU6050/MPU6050.c **** }
 1298              		.loc 1 605 0
 1299 0014 0030     		adds	r0, r0, #0
 1300 0016 18BF     		it	ne
 1301 0018 0120     		movne	r0, #1
 1302 001a 10BD     		pop	{r4, pc}
 1303              	.L143:
 1304              		.align	2
 1305              	.L142:
 1306 001c 00000000 		.word	mpu6050
 1307              		.cfi_endproc
 1308              	.LFE100:
 1309              		.size	MPU6050_getXGyroFIFOEnabled, .-MPU6050_getXGyroFIFOEnabled
 1310              		.section	.text.MPU6050_setXGyroFIFOEnabled,"ax",%progbits
 1311              		.align	2
 1312              		.global	MPU6050_setXGyroFIFOEnabled
 1313              		.thumb
 1314              		.thumb_func
 1315              		.type	MPU6050_setXGyroFIFOEnabled, %function
 1316              	MPU6050_setXGyroFIFOEnabled:
 1317              	.LFB101:
 606:.\MPU6050/MPU6050.c **** /** Set gyroscope X-axis FIFO enabled value.
 607:.\MPU6050/MPU6050.c ****  * @param enabled New gyroscope X-axis FIFO enabled value
 608:.\MPU6050/MPU6050.c ****  * @see getXGyroFIFOEnabled()
 609:.\MPU6050/MPU6050.c ****  * @see MPU6050_RA_FIFO_EN
 610:.\MPU6050/MPU6050.c ****  */
 611:.\MPU6050/MPU6050.c **** void MPU6050_setXGyroFIFOEnabled(bool enabled) {
 1318              		.loc 1 611 0
 1319              		.cfi_startproc
 1320              		@ args = 0, pretend = 0, frame = 0
 1321              		@ frame_needed = 0, uses_anonymous_args = 0
 1322              	.LVL70:
 1323 0000 08B5     		push	{r3, lr}
 1324              		.cfi_def_cfa_offset 8
 1325              		.cfi_offset 3, -8
 1326              		.cfi_offset 14, -4
 1327 0002 0346     		mov	r3, r0
ARM GAS  C:\Users\satomin\AppData\Local\Temp\ccS6UKJQ.s 			page 35


 612:.\MPU6050/MPU6050.c ****     I2Cdev_writeBit(mpu6050.devAddr, MPU6050_RA_FIFO_EN, MPU6050_XG_FIFO_EN_BIT, enabled);
 1328              		.loc 1 612 0
 1329 0004 034A     		ldr	r2, .L146
 1330 0006 1078     		ldrb	r0, [r2]	@ zero_extendqisi2
 1331              	.LVL71:
 1332 0008 2321     		movs	r1, #35
 1333 000a 0622     		movs	r2, #6
 1334 000c FFF7FEFF 		bl	I2Cdev_writeBit
 1335              	.LVL72:
 1336 0010 08BD     		pop	{r3, pc}
 1337              	.L147:
 1338 0012 00BF     		.align	2
 1339              	.L146:
 1340 0014 00000000 		.word	mpu6050
 1341              		.cfi_endproc
 1342              	.LFE101:
 1343              		.size	MPU6050_setXGyroFIFOEnabled, .-MPU6050_setXGyroFIFOEnabled
 1344              		.section	.text.MPU6050_getYGyroFIFOEnabled,"ax",%progbits
 1345              		.align	2
 1346              		.global	MPU6050_getYGyroFIFOEnabled
 1347              		.thumb
 1348              		.thumb_func
 1349              		.type	MPU6050_getYGyroFIFOEnabled, %function
 1350              	MPU6050_getYGyroFIFOEnabled:
 1351              	.LFB102:
 613:.\MPU6050/MPU6050.c **** }
 614:.\MPU6050/MPU6050.c **** /** Get gyroscope Y-axis FIFO enabled value.
 615:.\MPU6050/MPU6050.c ****  * When set to 1, this bit enables GYRO_YOUT_H and GYRO_YOUT_L (Registers 69 and
 616:.\MPU6050/MPU6050.c ****  * 70) to be written into the FIFO mpu6050.buffer.
 617:.\MPU6050/MPU6050.c ****  * @return Current gyroscope Y-axis FIFO enabled value
 618:.\MPU6050/MPU6050.c ****  * @see MPU6050_RA_FIFO_EN
 619:.\MPU6050/MPU6050.c ****  */
 620:.\MPU6050/MPU6050.c **** bool MPU6050_getYGyroFIFOEnabled() {
 1352              		.loc 1 620 0
 1353              		.cfi_startproc
 1354              		@ args = 0, pretend = 0, frame = 0
 1355              		@ frame_needed = 0, uses_anonymous_args = 0
 1356 0000 10B5     		push	{r4, lr}
 1357              		.cfi_def_cfa_offset 8
 1358              		.cfi_offset 4, -8
 1359              		.cfi_offset 14, -4
 621:.\MPU6050/MPU6050.c ****     I2Cdev_readBit(mpu6050.devAddr, MPU6050_RA_FIFO_EN, MPU6050_YG_FIFO_EN_BIT, mpu6050.buffer);
 1360              		.loc 1 621 0
 1361 0002 064C     		ldr	r4, .L150
 1362 0004 2346     		mov	r3, r4
 1363 0006 13F8010B 		ldrb	r0, [r3], #1	@ zero_extendqisi2
 1364 000a 2321     		movs	r1, #35
 1365 000c 0522     		movs	r2, #5
 1366 000e FFF7FEFF 		bl	I2Cdev_readBit
 1367              	.LVL73:
 622:.\MPU6050/MPU6050.c ****     return mpu6050.buffer[0];
 1368              		.loc 1 622 0
 1369 0012 6078     		ldrb	r0, [r4, #1]	@ zero_extendqisi2
 623:.\MPU6050/MPU6050.c **** }
 1370              		.loc 1 623 0
 1371 0014 0030     		adds	r0, r0, #0
 1372 0016 18BF     		it	ne
ARM GAS  C:\Users\satomin\AppData\Local\Temp\ccS6UKJQ.s 			page 36


 1373 0018 0120     		movne	r0, #1
 1374 001a 10BD     		pop	{r4, pc}
 1375              	.L151:
 1376              		.align	2
 1377              	.L150:
 1378 001c 00000000 		.word	mpu6050
 1379              		.cfi_endproc
 1380              	.LFE102:
 1381              		.size	MPU6050_getYGyroFIFOEnabled, .-MPU6050_getYGyroFIFOEnabled
 1382              		.section	.text.MPU6050_setYGyroFIFOEnabled,"ax",%progbits
 1383              		.align	2
 1384              		.global	MPU6050_setYGyroFIFOEnabled
 1385              		.thumb
 1386              		.thumb_func
 1387              		.type	MPU6050_setYGyroFIFOEnabled, %function
 1388              	MPU6050_setYGyroFIFOEnabled:
 1389              	.LFB103:
 624:.\MPU6050/MPU6050.c **** /** Set gyroscope Y-axis FIFO enabled value.
 625:.\MPU6050/MPU6050.c ****  * @param enabled New gyroscope Y-axis FIFO enabled value
 626:.\MPU6050/MPU6050.c ****  * @see getYGyroFIFOEnabled()
 627:.\MPU6050/MPU6050.c ****  * @see MPU6050_RA_FIFO_EN
 628:.\MPU6050/MPU6050.c ****  */
 629:.\MPU6050/MPU6050.c **** void MPU6050_setYGyroFIFOEnabled(bool enabled) {
 1390              		.loc 1 629 0
 1391              		.cfi_startproc
 1392              		@ args = 0, pretend = 0, frame = 0
 1393              		@ frame_needed = 0, uses_anonymous_args = 0
 1394              	.LVL74:
 1395 0000 08B5     		push	{r3, lr}
 1396              		.cfi_def_cfa_offset 8
 1397              		.cfi_offset 3, -8
 1398              		.cfi_offset 14, -4
 1399 0002 0346     		mov	r3, r0
 630:.\MPU6050/MPU6050.c ****     I2Cdev_writeBit(mpu6050.devAddr, MPU6050_RA_FIFO_EN, MPU6050_YG_FIFO_EN_BIT, enabled);
 1400              		.loc 1 630 0
 1401 0004 034A     		ldr	r2, .L154
 1402 0006 1078     		ldrb	r0, [r2]	@ zero_extendqisi2
 1403              	.LVL75:
 1404 0008 2321     		movs	r1, #35
 1405 000a 0522     		movs	r2, #5
 1406 000c FFF7FEFF 		bl	I2Cdev_writeBit
 1407              	.LVL76:
 1408 0010 08BD     		pop	{r3, pc}
 1409              	.L155:
 1410 0012 00BF     		.align	2
 1411              	.L154:
 1412 0014 00000000 		.word	mpu6050
 1413              		.cfi_endproc
 1414              	.LFE103:
 1415              		.size	MPU6050_setYGyroFIFOEnabled, .-MPU6050_setYGyroFIFOEnabled
 1416              		.section	.text.MPU6050_getZGyroFIFOEnabled,"ax",%progbits
 1417              		.align	2
 1418              		.global	MPU6050_getZGyroFIFOEnabled
 1419              		.thumb
 1420              		.thumb_func
 1421              		.type	MPU6050_getZGyroFIFOEnabled, %function
 1422              	MPU6050_getZGyroFIFOEnabled:
ARM GAS  C:\Users\satomin\AppData\Local\Temp\ccS6UKJQ.s 			page 37


 1423              	.LFB104:
 631:.\MPU6050/MPU6050.c **** }
 632:.\MPU6050/MPU6050.c **** /** Get gyroscope Z-axis FIFO enabled value.
 633:.\MPU6050/MPU6050.c ****  * When set to 1, this bit enables GYRO_ZOUT_H and GYRO_ZOUT_L (Registers 71 and
 634:.\MPU6050/MPU6050.c ****  * 72) to be written into the FIFO mpu6050.buffer.
 635:.\MPU6050/MPU6050.c ****  * @return Current gyroscope Z-axis FIFO enabled value
 636:.\MPU6050/MPU6050.c ****  * @see MPU6050_RA_FIFO_EN
 637:.\MPU6050/MPU6050.c ****  */
 638:.\MPU6050/MPU6050.c **** bool MPU6050_getZGyroFIFOEnabled() {
 1424              		.loc 1 638 0
 1425              		.cfi_startproc
 1426              		@ args = 0, pretend = 0, frame = 0
 1427              		@ frame_needed = 0, uses_anonymous_args = 0
 1428 0000 10B5     		push	{r4, lr}
 1429              		.cfi_def_cfa_offset 8
 1430              		.cfi_offset 4, -8
 1431              		.cfi_offset 14, -4
 639:.\MPU6050/MPU6050.c ****     I2Cdev_readBit(mpu6050.devAddr, MPU6050_RA_FIFO_EN, MPU6050_ZG_FIFO_EN_BIT, mpu6050.buffer);
 1432              		.loc 1 639 0
 1433 0002 064C     		ldr	r4, .L158
 1434 0004 2346     		mov	r3, r4
 1435 0006 13F8010B 		ldrb	r0, [r3], #1	@ zero_extendqisi2
 1436 000a 2321     		movs	r1, #35
 1437 000c 0422     		movs	r2, #4
 1438 000e FFF7FEFF 		bl	I2Cdev_readBit
 1439              	.LVL77:
 640:.\MPU6050/MPU6050.c ****     return mpu6050.buffer[0];
 1440              		.loc 1 640 0
 1441 0012 6078     		ldrb	r0, [r4, #1]	@ zero_extendqisi2
 641:.\MPU6050/MPU6050.c **** }
 1442              		.loc 1 641 0
 1443 0014 0030     		adds	r0, r0, #0
 1444 0016 18BF     		it	ne
 1445 0018 0120     		movne	r0, #1
 1446 001a 10BD     		pop	{r4, pc}
 1447              	.L159:
 1448              		.align	2
 1449              	.L158:
 1450 001c 00000000 		.word	mpu6050
 1451              		.cfi_endproc
 1452              	.LFE104:
 1453              		.size	MPU6050_getZGyroFIFOEnabled, .-MPU6050_getZGyroFIFOEnabled
 1454              		.section	.text.MPU6050_setZGyroFIFOEnabled,"ax",%progbits
 1455              		.align	2
 1456              		.global	MPU6050_setZGyroFIFOEnabled
 1457              		.thumb
 1458              		.thumb_func
 1459              		.type	MPU6050_setZGyroFIFOEnabled, %function
 1460              	MPU6050_setZGyroFIFOEnabled:
 1461              	.LFB105:
 642:.\MPU6050/MPU6050.c **** /** Set gyroscope Z-axis FIFO enabled value.
 643:.\MPU6050/MPU6050.c ****  * @param enabled New gyroscope Z-axis FIFO enabled value
 644:.\MPU6050/MPU6050.c ****  * @see getZGyroFIFOEnabled()
 645:.\MPU6050/MPU6050.c ****  * @see MPU6050_RA_FIFO_EN
 646:.\MPU6050/MPU6050.c ****  */
 647:.\MPU6050/MPU6050.c **** void MPU6050_setZGyroFIFOEnabled(bool enabled) {
 1462              		.loc 1 647 0
ARM GAS  C:\Users\satomin\AppData\Local\Temp\ccS6UKJQ.s 			page 38


 1463              		.cfi_startproc
 1464              		@ args = 0, pretend = 0, frame = 0
 1465              		@ frame_needed = 0, uses_anonymous_args = 0
 1466              	.LVL78:
 1467 0000 08B5     		push	{r3, lr}
 1468              		.cfi_def_cfa_offset 8
 1469              		.cfi_offset 3, -8
 1470              		.cfi_offset 14, -4
 1471 0002 0346     		mov	r3, r0
 648:.\MPU6050/MPU6050.c ****     I2Cdev_writeBit(mpu6050.devAddr, MPU6050_RA_FIFO_EN, MPU6050_ZG_FIFO_EN_BIT, enabled);
 1472              		.loc 1 648 0
 1473 0004 034A     		ldr	r2, .L162
 1474 0006 1078     		ldrb	r0, [r2]	@ zero_extendqisi2
 1475              	.LVL79:
 1476 0008 2321     		movs	r1, #35
 1477 000a 0422     		movs	r2, #4
 1478 000c FFF7FEFF 		bl	I2Cdev_writeBit
 1479              	.LVL80:
 1480 0010 08BD     		pop	{r3, pc}
 1481              	.L163:
 1482 0012 00BF     		.align	2
 1483              	.L162:
 1484 0014 00000000 		.word	mpu6050
 1485              		.cfi_endproc
 1486              	.LFE105:
 1487              		.size	MPU6050_setZGyroFIFOEnabled, .-MPU6050_setZGyroFIFOEnabled
 1488              		.section	.text.MPU6050_getAccelFIFOEnabled,"ax",%progbits
 1489              		.align	2
 1490              		.global	MPU6050_getAccelFIFOEnabled
 1491              		.thumb
 1492              		.thumb_func
 1493              		.type	MPU6050_getAccelFIFOEnabled, %function
 1494              	MPU6050_getAccelFIFOEnabled:
 1495              	.LFB106:
 649:.\MPU6050/MPU6050.c **** }
 650:.\MPU6050/MPU6050.c **** /** Get accelerometer FIFO enabled value.
 651:.\MPU6050/MPU6050.c ****  * When set to 1, this bit enables ACCEL_XOUT_H, ACCEL_XOUT_L, ACCEL_YOUT_H,
 652:.\MPU6050/MPU6050.c ****  * ACCEL_YOUT_L, ACCEL_ZOUT_H, and ACCEL_ZOUT_L (Registers 59 to 64) to be
 653:.\MPU6050/MPU6050.c ****  * written into the FIFO mpu6050.buffer.
 654:.\MPU6050/MPU6050.c ****  * @return Current accelerometer FIFO enabled value
 655:.\MPU6050/MPU6050.c ****  * @see MPU6050_RA_FIFO_EN
 656:.\MPU6050/MPU6050.c ****  */
 657:.\MPU6050/MPU6050.c **** bool MPU6050_getAccelFIFOEnabled() {
 1496              		.loc 1 657 0
 1497              		.cfi_startproc
 1498              		@ args = 0, pretend = 0, frame = 0
 1499              		@ frame_needed = 0, uses_anonymous_args = 0
 1500 0000 10B5     		push	{r4, lr}
 1501              		.cfi_def_cfa_offset 8
 1502              		.cfi_offset 4, -8
 1503              		.cfi_offset 14, -4
 658:.\MPU6050/MPU6050.c ****     I2Cdev_readBit(mpu6050.devAddr, MPU6050_RA_FIFO_EN, MPU6050_ACCEL_FIFO_EN_BIT, mpu6050.buffer);
 1504              		.loc 1 658 0
 1505 0002 064C     		ldr	r4, .L166
 1506 0004 2346     		mov	r3, r4
 1507 0006 13F8010B 		ldrb	r0, [r3], #1	@ zero_extendqisi2
 1508 000a 2321     		movs	r1, #35
ARM GAS  C:\Users\satomin\AppData\Local\Temp\ccS6UKJQ.s 			page 39


 1509 000c 0322     		movs	r2, #3
 1510 000e FFF7FEFF 		bl	I2Cdev_readBit
 1511              	.LVL81:
 659:.\MPU6050/MPU6050.c ****     return mpu6050.buffer[0];
 1512              		.loc 1 659 0
 1513 0012 6078     		ldrb	r0, [r4, #1]	@ zero_extendqisi2
 660:.\MPU6050/MPU6050.c **** }
 1514              		.loc 1 660 0
 1515 0014 0030     		adds	r0, r0, #0
 1516 0016 18BF     		it	ne
 1517 0018 0120     		movne	r0, #1
 1518 001a 10BD     		pop	{r4, pc}
 1519              	.L167:
 1520              		.align	2
 1521              	.L166:
 1522 001c 00000000 		.word	mpu6050
 1523              		.cfi_endproc
 1524              	.LFE106:
 1525              		.size	MPU6050_getAccelFIFOEnabled, .-MPU6050_getAccelFIFOEnabled
 1526              		.section	.text.MPU6050_setAccelFIFOEnabled,"ax",%progbits
 1527              		.align	2
 1528              		.global	MPU6050_setAccelFIFOEnabled
 1529              		.thumb
 1530              		.thumb_func
 1531              		.type	MPU6050_setAccelFIFOEnabled, %function
 1532              	MPU6050_setAccelFIFOEnabled:
 1533              	.LFB107:
 661:.\MPU6050/MPU6050.c **** /** Set accelerometer FIFO enabled value.
 662:.\MPU6050/MPU6050.c ****  * @param enabled New accelerometer FIFO enabled value
 663:.\MPU6050/MPU6050.c ****  * @see getAccelFIFOEnabled()
 664:.\MPU6050/MPU6050.c ****  * @see MPU6050_RA_FIFO_EN
 665:.\MPU6050/MPU6050.c ****  */
 666:.\MPU6050/MPU6050.c **** void MPU6050_setAccelFIFOEnabled(bool enabled) {
 1534              		.loc 1 666 0
 1535              		.cfi_startproc
 1536              		@ args = 0, pretend = 0, frame = 0
 1537              		@ frame_needed = 0, uses_anonymous_args = 0
 1538              	.LVL82:
 1539 0000 08B5     		push	{r3, lr}
 1540              		.cfi_def_cfa_offset 8
 1541              		.cfi_offset 3, -8
 1542              		.cfi_offset 14, -4
 1543 0002 0346     		mov	r3, r0
 667:.\MPU6050/MPU6050.c ****     I2Cdev_writeBit(mpu6050.devAddr, MPU6050_RA_FIFO_EN, MPU6050_ACCEL_FIFO_EN_BIT, enabled);
 1544              		.loc 1 667 0
 1545 0004 034A     		ldr	r2, .L170
 1546 0006 1078     		ldrb	r0, [r2]	@ zero_extendqisi2
 1547              	.LVL83:
 1548 0008 2321     		movs	r1, #35
 1549 000a 0322     		movs	r2, #3
 1550 000c FFF7FEFF 		bl	I2Cdev_writeBit
 1551              	.LVL84:
 1552 0010 08BD     		pop	{r3, pc}
 1553              	.L171:
 1554 0012 00BF     		.align	2
 1555              	.L170:
 1556 0014 00000000 		.word	mpu6050
ARM GAS  C:\Users\satomin\AppData\Local\Temp\ccS6UKJQ.s 			page 40


 1557              		.cfi_endproc
 1558              	.LFE107:
 1559              		.size	MPU6050_setAccelFIFOEnabled, .-MPU6050_setAccelFIFOEnabled
 1560              		.section	.text.MPU6050_getSlave2FIFOEnabled,"ax",%progbits
 1561              		.align	2
 1562              		.global	MPU6050_getSlave2FIFOEnabled
 1563              		.thumb
 1564              		.thumb_func
 1565              		.type	MPU6050_getSlave2FIFOEnabled, %function
 1566              	MPU6050_getSlave2FIFOEnabled:
 1567              	.LFB108:
 668:.\MPU6050/MPU6050.c **** }
 669:.\MPU6050/MPU6050.c **** /** Get Slave 2 FIFO enabled value.
 670:.\MPU6050/MPU6050.c ****  * When set to 1, this bit enables EXT_SENS_DATA registers (Registers 73 to 96)
 671:.\MPU6050/MPU6050.c ****  * associated with Slave 2 to be written into the FIFO mpu6050.buffer.
 672:.\MPU6050/MPU6050.c ****  * @return Current Slave 2 FIFO enabled value
 673:.\MPU6050/MPU6050.c ****  * @see MPU6050_RA_FIFO_EN
 674:.\MPU6050/MPU6050.c ****  */
 675:.\MPU6050/MPU6050.c **** bool MPU6050_getSlave2FIFOEnabled() {
 1568              		.loc 1 675 0
 1569              		.cfi_startproc
 1570              		@ args = 0, pretend = 0, frame = 0
 1571              		@ frame_needed = 0, uses_anonymous_args = 0
 1572 0000 10B5     		push	{r4, lr}
 1573              		.cfi_def_cfa_offset 8
 1574              		.cfi_offset 4, -8
 1575              		.cfi_offset 14, -4
 676:.\MPU6050/MPU6050.c ****     I2Cdev_readBit(mpu6050.devAddr, MPU6050_RA_FIFO_EN, MPU6050_SLV2_FIFO_EN_BIT, mpu6050.buffer);
 1576              		.loc 1 676 0
 1577 0002 064C     		ldr	r4, .L174
 1578 0004 2346     		mov	r3, r4
 1579 0006 13F8010B 		ldrb	r0, [r3], #1	@ zero_extendqisi2
 1580 000a 2321     		movs	r1, #35
 1581 000c 0222     		movs	r2, #2
 1582 000e FFF7FEFF 		bl	I2Cdev_readBit
 1583              	.LVL85:
 677:.\MPU6050/MPU6050.c ****     return mpu6050.buffer[0];
 1584              		.loc 1 677 0
 1585 0012 6078     		ldrb	r0, [r4, #1]	@ zero_extendqisi2
 678:.\MPU6050/MPU6050.c **** }
 1586              		.loc 1 678 0
 1587 0014 0030     		adds	r0, r0, #0
 1588 0016 18BF     		it	ne
 1589 0018 0120     		movne	r0, #1
 1590 001a 10BD     		pop	{r4, pc}
 1591              	.L175:
 1592              		.align	2
 1593              	.L174:
 1594 001c 00000000 		.word	mpu6050
 1595              		.cfi_endproc
 1596              	.LFE108:
 1597              		.size	MPU6050_getSlave2FIFOEnabled, .-MPU6050_getSlave2FIFOEnabled
 1598              		.section	.text.MPU6050_setSlave2FIFOEnabled,"ax",%progbits
 1599              		.align	2
 1600              		.global	MPU6050_setSlave2FIFOEnabled
 1601              		.thumb
 1602              		.thumb_func
ARM GAS  C:\Users\satomin\AppData\Local\Temp\ccS6UKJQ.s 			page 41


 1603              		.type	MPU6050_setSlave2FIFOEnabled, %function
 1604              	MPU6050_setSlave2FIFOEnabled:
 1605              	.LFB109:
 679:.\MPU6050/MPU6050.c **** /** Set Slave 2 FIFO enabled value.
 680:.\MPU6050/MPU6050.c ****  * @param enabled New Slave 2 FIFO enabled value
 681:.\MPU6050/MPU6050.c ****  * @see getSlave2FIFOEnabled()
 682:.\MPU6050/MPU6050.c ****  * @see MPU6050_RA_FIFO_EN
 683:.\MPU6050/MPU6050.c ****  */
 684:.\MPU6050/MPU6050.c **** void MPU6050_setSlave2FIFOEnabled(bool enabled) {
 1606              		.loc 1 684 0
 1607              		.cfi_startproc
 1608              		@ args = 0, pretend = 0, frame = 0
 1609              		@ frame_needed = 0, uses_anonymous_args = 0
 1610              	.LVL86:
 1611 0000 08B5     		push	{r3, lr}
 1612              		.cfi_def_cfa_offset 8
 1613              		.cfi_offset 3, -8
 1614              		.cfi_offset 14, -4
 1615 0002 0346     		mov	r3, r0
 685:.\MPU6050/MPU6050.c ****     I2Cdev_writeBit(mpu6050.devAddr, MPU6050_RA_FIFO_EN, MPU6050_SLV2_FIFO_EN_BIT, enabled);
 1616              		.loc 1 685 0
 1617 0004 034A     		ldr	r2, .L178
 1618 0006 1078     		ldrb	r0, [r2]	@ zero_extendqisi2
 1619              	.LVL87:
 1620 0008 2321     		movs	r1, #35
 1621 000a 0222     		movs	r2, #2
 1622 000c FFF7FEFF 		bl	I2Cdev_writeBit
 1623              	.LVL88:
 1624 0010 08BD     		pop	{r3, pc}
 1625              	.L179:
 1626 0012 00BF     		.align	2
 1627              	.L178:
 1628 0014 00000000 		.word	mpu6050
 1629              		.cfi_endproc
 1630              	.LFE109:
 1631              		.size	MPU6050_setSlave2FIFOEnabled, .-MPU6050_setSlave2FIFOEnabled
 1632              		.section	.text.MPU6050_getSlave1FIFOEnabled,"ax",%progbits
 1633              		.align	2
 1634              		.global	MPU6050_getSlave1FIFOEnabled
 1635              		.thumb
 1636              		.thumb_func
 1637              		.type	MPU6050_getSlave1FIFOEnabled, %function
 1638              	MPU6050_getSlave1FIFOEnabled:
 1639              	.LFB110:
 686:.\MPU6050/MPU6050.c **** }
 687:.\MPU6050/MPU6050.c **** /** Get Slave 1 FIFO enabled value.
 688:.\MPU6050/MPU6050.c ****  * When set to 1, this bit enables EXT_SENS_DATA registers (Registers 73 to 96)
 689:.\MPU6050/MPU6050.c ****  * associated with Slave 1 to be written into the FIFO mpu6050.buffer.
 690:.\MPU6050/MPU6050.c ****  * @return Current Slave 1 FIFO enabled value
 691:.\MPU6050/MPU6050.c ****  * @see MPU6050_RA_FIFO_EN
 692:.\MPU6050/MPU6050.c ****  */
 693:.\MPU6050/MPU6050.c **** bool MPU6050_getSlave1FIFOEnabled() {
 1640              		.loc 1 693 0
 1641              		.cfi_startproc
 1642              		@ args = 0, pretend = 0, frame = 0
 1643              		@ frame_needed = 0, uses_anonymous_args = 0
 1644 0000 10B5     		push	{r4, lr}
ARM GAS  C:\Users\satomin\AppData\Local\Temp\ccS6UKJQ.s 			page 42


 1645              		.cfi_def_cfa_offset 8
 1646              		.cfi_offset 4, -8
 1647              		.cfi_offset 14, -4
 694:.\MPU6050/MPU6050.c ****     I2Cdev_readBit(mpu6050.devAddr, MPU6050_RA_FIFO_EN, MPU6050_SLV1_FIFO_EN_BIT, mpu6050.buffer);
 1648              		.loc 1 694 0
 1649 0002 064C     		ldr	r4, .L182
 1650 0004 2346     		mov	r3, r4
 1651 0006 13F8010B 		ldrb	r0, [r3], #1	@ zero_extendqisi2
 1652 000a 2321     		movs	r1, #35
 1653 000c 0122     		movs	r2, #1
 1654 000e FFF7FEFF 		bl	I2Cdev_readBit
 1655              	.LVL89:
 695:.\MPU6050/MPU6050.c ****     return mpu6050.buffer[0];
 1656              		.loc 1 695 0
 1657 0012 6078     		ldrb	r0, [r4, #1]	@ zero_extendqisi2
 696:.\MPU6050/MPU6050.c **** }
 1658              		.loc 1 696 0
 1659 0014 0030     		adds	r0, r0, #0
 1660 0016 18BF     		it	ne
 1661 0018 0120     		movne	r0, #1
 1662 001a 10BD     		pop	{r4, pc}
 1663              	.L183:
 1664              		.align	2
 1665              	.L182:
 1666 001c 00000000 		.word	mpu6050
 1667              		.cfi_endproc
 1668              	.LFE110:
 1669              		.size	MPU6050_getSlave1FIFOEnabled, .-MPU6050_getSlave1FIFOEnabled
 1670              		.section	.text.MPU6050_setSlave1FIFOEnabled,"ax",%progbits
 1671              		.align	2
 1672              		.global	MPU6050_setSlave1FIFOEnabled
 1673              		.thumb
 1674              		.thumb_func
 1675              		.type	MPU6050_setSlave1FIFOEnabled, %function
 1676              	MPU6050_setSlave1FIFOEnabled:
 1677              	.LFB111:
 697:.\MPU6050/MPU6050.c **** /** Set Slave 1 FIFO enabled value.
 698:.\MPU6050/MPU6050.c ****  * @param enabled New Slave 1 FIFO enabled value
 699:.\MPU6050/MPU6050.c ****  * @see getSlave1FIFOEnabled()
 700:.\MPU6050/MPU6050.c ****  * @see MPU6050_RA_FIFO_EN
 701:.\MPU6050/MPU6050.c ****  */
 702:.\MPU6050/MPU6050.c **** void MPU6050_setSlave1FIFOEnabled(bool enabled) {
 1678              		.loc 1 702 0
 1679              		.cfi_startproc
 1680              		@ args = 0, pretend = 0, frame = 0
 1681              		@ frame_needed = 0, uses_anonymous_args = 0
 1682              	.LVL90:
 1683 0000 08B5     		push	{r3, lr}
 1684              		.cfi_def_cfa_offset 8
 1685              		.cfi_offset 3, -8
 1686              		.cfi_offset 14, -4
 1687 0002 0346     		mov	r3, r0
 703:.\MPU6050/MPU6050.c ****     I2Cdev_writeBit(mpu6050.devAddr, MPU6050_RA_FIFO_EN, MPU6050_SLV1_FIFO_EN_BIT, enabled);
 1688              		.loc 1 703 0
 1689 0004 034A     		ldr	r2, .L186
 1690 0006 1078     		ldrb	r0, [r2]	@ zero_extendqisi2
 1691              	.LVL91:
ARM GAS  C:\Users\satomin\AppData\Local\Temp\ccS6UKJQ.s 			page 43


 1692 0008 2321     		movs	r1, #35
 1693 000a 0122     		movs	r2, #1
 1694 000c FFF7FEFF 		bl	I2Cdev_writeBit
 1695              	.LVL92:
 1696 0010 08BD     		pop	{r3, pc}
 1697              	.L187:
 1698 0012 00BF     		.align	2
 1699              	.L186:
 1700 0014 00000000 		.word	mpu6050
 1701              		.cfi_endproc
 1702              	.LFE111:
 1703              		.size	MPU6050_setSlave1FIFOEnabled, .-MPU6050_setSlave1FIFOEnabled
 1704              		.section	.text.MPU6050_getSlave0FIFOEnabled,"ax",%progbits
 1705              		.align	2
 1706              		.global	MPU6050_getSlave0FIFOEnabled
 1707              		.thumb
 1708              		.thumb_func
 1709              		.type	MPU6050_getSlave0FIFOEnabled, %function
 1710              	MPU6050_getSlave0FIFOEnabled:
 1711              	.LFB112:
 704:.\MPU6050/MPU6050.c **** }
 705:.\MPU6050/MPU6050.c **** /** Get Slave 0 FIFO enabled value.
 706:.\MPU6050/MPU6050.c ****  * When set to 1, this bit enables EXT_SENS_DATA registers (Registers 73 to 96)
 707:.\MPU6050/MPU6050.c ****  * associated with Slave 0 to be written into the FIFO mpu6050.buffer.
 708:.\MPU6050/MPU6050.c ****  * @return Current Slave 0 FIFO enabled value
 709:.\MPU6050/MPU6050.c ****  * @see MPU6050_RA_FIFO_EN
 710:.\MPU6050/MPU6050.c ****  */
 711:.\MPU6050/MPU6050.c **** bool MPU6050_getSlave0FIFOEnabled() {
 1712              		.loc 1 711 0
 1713              		.cfi_startproc
 1714              		@ args = 0, pretend = 0, frame = 0
 1715              		@ frame_needed = 0, uses_anonymous_args = 0
 1716 0000 10B5     		push	{r4, lr}
 1717              		.cfi_def_cfa_offset 8
 1718              		.cfi_offset 4, -8
 1719              		.cfi_offset 14, -4
 712:.\MPU6050/MPU6050.c ****     I2Cdev_readBit(mpu6050.devAddr, MPU6050_RA_FIFO_EN, MPU6050_SLV0_FIFO_EN_BIT, mpu6050.buffer);
 1720              		.loc 1 712 0
 1721 0002 064C     		ldr	r4, .L190
 1722 0004 2346     		mov	r3, r4
 1723 0006 13F8010B 		ldrb	r0, [r3], #1	@ zero_extendqisi2
 1724 000a 2321     		movs	r1, #35
 1725 000c 0022     		movs	r2, #0
 1726 000e FFF7FEFF 		bl	I2Cdev_readBit
 1727              	.LVL93:
 713:.\MPU6050/MPU6050.c ****     return mpu6050.buffer[0];
 1728              		.loc 1 713 0
 1729 0012 6078     		ldrb	r0, [r4, #1]	@ zero_extendqisi2
 714:.\MPU6050/MPU6050.c **** }
 1730              		.loc 1 714 0
 1731 0014 0030     		adds	r0, r0, #0
 1732 0016 18BF     		it	ne
 1733 0018 0120     		movne	r0, #1
 1734 001a 10BD     		pop	{r4, pc}
 1735              	.L191:
 1736              		.align	2
 1737              	.L190:
ARM GAS  C:\Users\satomin\AppData\Local\Temp\ccS6UKJQ.s 			page 44


 1738 001c 00000000 		.word	mpu6050
 1739              		.cfi_endproc
 1740              	.LFE112:
 1741              		.size	MPU6050_getSlave0FIFOEnabled, .-MPU6050_getSlave0FIFOEnabled
 1742              		.section	.text.MPU6050_setSlave0FIFOEnabled,"ax",%progbits
 1743              		.align	2
 1744              		.global	MPU6050_setSlave0FIFOEnabled
 1745              		.thumb
 1746              		.thumb_func
 1747              		.type	MPU6050_setSlave0FIFOEnabled, %function
 1748              	MPU6050_setSlave0FIFOEnabled:
 1749              	.LFB113:
 715:.\MPU6050/MPU6050.c **** /** Set Slave 0 FIFO enabled value.
 716:.\MPU6050/MPU6050.c ****  * @param enabled New Slave 0 FIFO enabled value
 717:.\MPU6050/MPU6050.c ****  * @see getSlave0FIFOEnabled()
 718:.\MPU6050/MPU6050.c ****  * @see MPU6050_RA_FIFO_EN
 719:.\MPU6050/MPU6050.c ****  */
 720:.\MPU6050/MPU6050.c **** void MPU6050_setSlave0FIFOEnabled(bool enabled) {
 1750              		.loc 1 720 0
 1751              		.cfi_startproc
 1752              		@ args = 0, pretend = 0, frame = 0
 1753              		@ frame_needed = 0, uses_anonymous_args = 0
 1754              	.LVL94:
 1755 0000 08B5     		push	{r3, lr}
 1756              		.cfi_def_cfa_offset 8
 1757              		.cfi_offset 3, -8
 1758              		.cfi_offset 14, -4
 1759 0002 0346     		mov	r3, r0
 721:.\MPU6050/MPU6050.c ****     I2Cdev_writeBit(mpu6050.devAddr, MPU6050_RA_FIFO_EN, MPU6050_SLV0_FIFO_EN_BIT, enabled);
 1760              		.loc 1 721 0
 1761 0004 034A     		ldr	r2, .L194
 1762 0006 1078     		ldrb	r0, [r2]	@ zero_extendqisi2
 1763              	.LVL95:
 1764 0008 2321     		movs	r1, #35
 1765 000a 0022     		movs	r2, #0
 1766 000c FFF7FEFF 		bl	I2Cdev_writeBit
 1767              	.LVL96:
 1768 0010 08BD     		pop	{r3, pc}
 1769              	.L195:
 1770 0012 00BF     		.align	2
 1771              	.L194:
 1772 0014 00000000 		.word	mpu6050
 1773              		.cfi_endproc
 1774              	.LFE113:
 1775              		.size	MPU6050_setSlave0FIFOEnabled, .-MPU6050_setSlave0FIFOEnabled
 1776              		.section	.text.MPU6050_getMultiMasterEnabled,"ax",%progbits
 1777              		.align	2
 1778              		.global	MPU6050_getMultiMasterEnabled
 1779              		.thumb
 1780              		.thumb_func
 1781              		.type	MPU6050_getMultiMasterEnabled, %function
 1782              	MPU6050_getMultiMasterEnabled:
 1783              	.LFB114:
 722:.\MPU6050/MPU6050.c **** }
 723:.\MPU6050/MPU6050.c **** 
 724:.\MPU6050/MPU6050.c **** // I2C_MST_CTRL register
 725:.\MPU6050/MPU6050.c **** 
ARM GAS  C:\Users\satomin\AppData\Local\Temp\ccS6UKJQ.s 			page 45


 726:.\MPU6050/MPU6050.c **** /** Get multi-master enabled value.
 727:.\MPU6050/MPU6050.c ****  * Multi-master capability allows multiple I2C masters to operate on the same
 728:.\MPU6050/MPU6050.c ****  * bus. In circuits where multi-master capability is required, set MULT_MST_EN
 729:.\MPU6050/MPU6050.c ****  * to 1. This will increase current drawn by approximately 30uA.
 730:.\MPU6050/MPU6050.c ****  *
 731:.\MPU6050/MPU6050.c ****  * In circuits where multi-master capability is required, the state of the I2C
 732:.\MPU6050/MPU6050.c ****  * bus must always be monitored by each separate I2C Master. Before an I2C
 733:.\MPU6050/MPU6050.c ****  * Master can assume arbitration of the bus, it must first confirm that no other
 734:.\MPU6050/MPU6050.c ****  * I2C Master has arbitration of the bus. When MULT_MST_EN is set to 1, the
 735:.\MPU6050/MPU6050.c ****  * MPU-60X0's bus arbitration detection logic is turned on, enabling it to
 736:.\MPU6050/MPU6050.c ****  * detect when the bus is available.
 737:.\MPU6050/MPU6050.c ****  *
 738:.\MPU6050/MPU6050.c ****  * @return Current multi-master enabled value
 739:.\MPU6050/MPU6050.c ****  * @see MPU6050_RA_I2C_MST_CTRL
 740:.\MPU6050/MPU6050.c ****  */
 741:.\MPU6050/MPU6050.c **** bool MPU6050_getMultiMasterEnabled() {
 1784              		.loc 1 741 0
 1785              		.cfi_startproc
 1786              		@ args = 0, pretend = 0, frame = 0
 1787              		@ frame_needed = 0, uses_anonymous_args = 0
 1788 0000 10B5     		push	{r4, lr}
 1789              		.cfi_def_cfa_offset 8
 1790              		.cfi_offset 4, -8
 1791              		.cfi_offset 14, -4
 742:.\MPU6050/MPU6050.c ****     I2Cdev_readBit(mpu6050.devAddr, MPU6050_RA_I2C_MST_CTRL, MPU6050_MULT_MST_EN_BIT, mpu6050.buffe
 1792              		.loc 1 742 0
 1793 0002 064C     		ldr	r4, .L198
 1794 0004 2346     		mov	r3, r4
 1795 0006 13F8010B 		ldrb	r0, [r3], #1	@ zero_extendqisi2
 1796 000a 2421     		movs	r1, #36
 1797 000c 0722     		movs	r2, #7
 1798 000e FFF7FEFF 		bl	I2Cdev_readBit
 1799              	.LVL97:
 743:.\MPU6050/MPU6050.c ****     return mpu6050.buffer[0];
 1800              		.loc 1 743 0
 1801 0012 6078     		ldrb	r0, [r4, #1]	@ zero_extendqisi2
 744:.\MPU6050/MPU6050.c **** }
 1802              		.loc 1 744 0
 1803 0014 0030     		adds	r0, r0, #0
 1804 0016 18BF     		it	ne
 1805 0018 0120     		movne	r0, #1
 1806 001a 10BD     		pop	{r4, pc}
 1807              	.L199:
 1808              		.align	2
 1809              	.L198:
 1810 001c 00000000 		.word	mpu6050
 1811              		.cfi_endproc
 1812              	.LFE114:
 1813              		.size	MPU6050_getMultiMasterEnabled, .-MPU6050_getMultiMasterEnabled
 1814              		.section	.text.MPU6050_setMultiMasterEnabled,"ax",%progbits
 1815              		.align	2
 1816              		.global	MPU6050_setMultiMasterEnabled
 1817              		.thumb
 1818              		.thumb_func
 1819              		.type	MPU6050_setMultiMasterEnabled, %function
 1820              	MPU6050_setMultiMasterEnabled:
 1821              	.LFB115:
ARM GAS  C:\Users\satomin\AppData\Local\Temp\ccS6UKJQ.s 			page 46


 745:.\MPU6050/MPU6050.c **** /** Set multi-master enabled value.
 746:.\MPU6050/MPU6050.c ****  * @param enabled New multi-master enabled value
 747:.\MPU6050/MPU6050.c ****  * @see getMultiMasterEnabled()
 748:.\MPU6050/MPU6050.c ****  * @see MPU6050_RA_I2C_MST_CTRL
 749:.\MPU6050/MPU6050.c ****  */
 750:.\MPU6050/MPU6050.c **** void MPU6050_setMultiMasterEnabled(bool enabled) {
 1822              		.loc 1 750 0
 1823              		.cfi_startproc
 1824              		@ args = 0, pretend = 0, frame = 0
 1825              		@ frame_needed = 0, uses_anonymous_args = 0
 1826              	.LVL98:
 1827 0000 08B5     		push	{r3, lr}
 1828              		.cfi_def_cfa_offset 8
 1829              		.cfi_offset 3, -8
 1830              		.cfi_offset 14, -4
 1831 0002 0346     		mov	r3, r0
 751:.\MPU6050/MPU6050.c ****     I2Cdev_writeBit(mpu6050.devAddr, MPU6050_RA_I2C_MST_CTRL, MPU6050_MULT_MST_EN_BIT, enabled);
 1832              		.loc 1 751 0
 1833 0004 034A     		ldr	r2, .L202
 1834 0006 1078     		ldrb	r0, [r2]	@ zero_extendqisi2
 1835              	.LVL99:
 1836 0008 2421     		movs	r1, #36
 1837 000a 0722     		movs	r2, #7
 1838 000c FFF7FEFF 		bl	I2Cdev_writeBit
 1839              	.LVL100:
 1840 0010 08BD     		pop	{r3, pc}
 1841              	.L203:
 1842 0012 00BF     		.align	2
 1843              	.L202:
 1844 0014 00000000 		.word	mpu6050
 1845              		.cfi_endproc
 1846              	.LFE115:
 1847              		.size	MPU6050_setMultiMasterEnabled, .-MPU6050_setMultiMasterEnabled
 1848              		.section	.text.MPU6050_getWaitForExternalSensorEnabled,"ax",%progbits
 1849              		.align	2
 1850              		.global	MPU6050_getWaitForExternalSensorEnabled
 1851              		.thumb
 1852              		.thumb_func
 1853              		.type	MPU6050_getWaitForExternalSensorEnabled, %function
 1854              	MPU6050_getWaitForExternalSensorEnabled:
 1855              	.LFB116:
 752:.\MPU6050/MPU6050.c **** }
 753:.\MPU6050/MPU6050.c **** /** Get wait-for-external-sensor-data enabled value.
 754:.\MPU6050/MPU6050.c ****  * When the WAIT_FOR_ES bit is set to 1, the Data Ready interrupt will be
 755:.\MPU6050/MPU6050.c ****  * delayed until External Sensor data from the Slave Devices are loaded into the
 756:.\MPU6050/MPU6050.c ****  * EXT_SENS_DATA registers. This is used to ensure that both the internal sensor
 757:.\MPU6050/MPU6050.c ****  * data (i.e. from gyro and accel) and external sensor data have been loaded to
 758:.\MPU6050/MPU6050.c ****  * their respective data registers (i.e. the data is synced) when the Data Ready
 759:.\MPU6050/MPU6050.c ****  * interrupt is triggered.
 760:.\MPU6050/MPU6050.c ****  *
 761:.\MPU6050/MPU6050.c ****  * @return Current wait-for-external-sensor-data enabled value
 762:.\MPU6050/MPU6050.c ****  * @see MPU6050_RA_I2C_MST_CTRL
 763:.\MPU6050/MPU6050.c ****  */
 764:.\MPU6050/MPU6050.c **** bool MPU6050_getWaitForExternalSensorEnabled() {
 1856              		.loc 1 764 0
 1857              		.cfi_startproc
 1858              		@ args = 0, pretend = 0, frame = 0
ARM GAS  C:\Users\satomin\AppData\Local\Temp\ccS6UKJQ.s 			page 47


 1859              		@ frame_needed = 0, uses_anonymous_args = 0
 1860 0000 10B5     		push	{r4, lr}
 1861              		.cfi_def_cfa_offset 8
 1862              		.cfi_offset 4, -8
 1863              		.cfi_offset 14, -4
 765:.\MPU6050/MPU6050.c ****     I2Cdev_readBit(mpu6050.devAddr, MPU6050_RA_I2C_MST_CTRL, MPU6050_WAIT_FOR_ES_BIT, mpu6050.buffe
 1864              		.loc 1 765 0
 1865 0002 064C     		ldr	r4, .L206
 1866 0004 2346     		mov	r3, r4
 1867 0006 13F8010B 		ldrb	r0, [r3], #1	@ zero_extendqisi2
 1868 000a 2421     		movs	r1, #36
 1869 000c 0622     		movs	r2, #6
 1870 000e FFF7FEFF 		bl	I2Cdev_readBit
 1871              	.LVL101:
 766:.\MPU6050/MPU6050.c ****     return mpu6050.buffer[0];
 1872              		.loc 1 766 0
 1873 0012 6078     		ldrb	r0, [r4, #1]	@ zero_extendqisi2
 767:.\MPU6050/MPU6050.c **** }
 1874              		.loc 1 767 0
 1875 0014 0030     		adds	r0, r0, #0
 1876 0016 18BF     		it	ne
 1877 0018 0120     		movne	r0, #1
 1878 001a 10BD     		pop	{r4, pc}
 1879              	.L207:
 1880              		.align	2
 1881              	.L206:
 1882 001c 00000000 		.word	mpu6050
 1883              		.cfi_endproc
 1884              	.LFE116:
 1885              		.size	MPU6050_getWaitForExternalSensorEnabled, .-MPU6050_getWaitForExternalSensorEnabled
 1886              		.section	.text.MPU6050_setWaitForExternalSensorEnabled,"ax",%progbits
 1887              		.align	2
 1888              		.global	MPU6050_setWaitForExternalSensorEnabled
 1889              		.thumb
 1890              		.thumb_func
 1891              		.type	MPU6050_setWaitForExternalSensorEnabled, %function
 1892              	MPU6050_setWaitForExternalSensorEnabled:
 1893              	.LFB117:
 768:.\MPU6050/MPU6050.c **** /** Set wait-for-external-sensor-data enabled value.
 769:.\MPU6050/MPU6050.c ****  * @param enabled New wait-for-external-sensor-data enabled value
 770:.\MPU6050/MPU6050.c ****  * @see getWaitForExternalSensorEnabled()
 771:.\MPU6050/MPU6050.c ****  * @see MPU6050_RA_I2C_MST_CTRL
 772:.\MPU6050/MPU6050.c ****  */
 773:.\MPU6050/MPU6050.c **** void MPU6050_setWaitForExternalSensorEnabled(bool enabled) {
 1894              		.loc 1 773 0
 1895              		.cfi_startproc
 1896              		@ args = 0, pretend = 0, frame = 0
 1897              		@ frame_needed = 0, uses_anonymous_args = 0
 1898              	.LVL102:
 1899 0000 08B5     		push	{r3, lr}
 1900              		.cfi_def_cfa_offset 8
 1901              		.cfi_offset 3, -8
 1902              		.cfi_offset 14, -4
 1903 0002 0346     		mov	r3, r0
 774:.\MPU6050/MPU6050.c ****     I2Cdev_writeBit(mpu6050.devAddr, MPU6050_RA_I2C_MST_CTRL, MPU6050_WAIT_FOR_ES_BIT, enabled);
 1904              		.loc 1 774 0
 1905 0004 034A     		ldr	r2, .L210
ARM GAS  C:\Users\satomin\AppData\Local\Temp\ccS6UKJQ.s 			page 48


 1906 0006 1078     		ldrb	r0, [r2]	@ zero_extendqisi2
 1907              	.LVL103:
 1908 0008 2421     		movs	r1, #36
 1909 000a 0622     		movs	r2, #6
 1910 000c FFF7FEFF 		bl	I2Cdev_writeBit
 1911              	.LVL104:
 1912 0010 08BD     		pop	{r3, pc}
 1913              	.L211:
 1914 0012 00BF     		.align	2
 1915              	.L210:
 1916 0014 00000000 		.word	mpu6050
 1917              		.cfi_endproc
 1918              	.LFE117:
 1919              		.size	MPU6050_setWaitForExternalSensorEnabled, .-MPU6050_setWaitForExternalSensorEnabled
 1920              		.section	.text.MPU6050_getSlave3FIFOEnabled,"ax",%progbits
 1921              		.align	2
 1922              		.global	MPU6050_getSlave3FIFOEnabled
 1923              		.thumb
 1924              		.thumb_func
 1925              		.type	MPU6050_getSlave3FIFOEnabled, %function
 1926              	MPU6050_getSlave3FIFOEnabled:
 1927              	.LFB118:
 775:.\MPU6050/MPU6050.c **** }
 776:.\MPU6050/MPU6050.c **** /** Get Slave 3 FIFO enabled value.
 777:.\MPU6050/MPU6050.c ****  * When set to 1, this bit enables EXT_SENS_DATA registers (Registers 73 to 96)
 778:.\MPU6050/MPU6050.c ****  * associated with Slave 3 to be written into the FIFO mpu6050.buffer.
 779:.\MPU6050/MPU6050.c ****  * @return Current Slave 3 FIFO enabled value
 780:.\MPU6050/MPU6050.c ****  * @see MPU6050_RA_MST_CTRL
 781:.\MPU6050/MPU6050.c ****  */
 782:.\MPU6050/MPU6050.c **** bool MPU6050_getSlave3FIFOEnabled() {
 1928              		.loc 1 782 0
 1929              		.cfi_startproc
 1930              		@ args = 0, pretend = 0, frame = 0
 1931              		@ frame_needed = 0, uses_anonymous_args = 0
 1932 0000 10B5     		push	{r4, lr}
 1933              		.cfi_def_cfa_offset 8
 1934              		.cfi_offset 4, -8
 1935              		.cfi_offset 14, -4
 783:.\MPU6050/MPU6050.c ****     I2Cdev_readBit(mpu6050.devAddr, MPU6050_RA_I2C_MST_CTRL, MPU6050_SLV_3_FIFO_EN_BIT, mpu6050.buf
 1936              		.loc 1 783 0
 1937 0002 064C     		ldr	r4, .L214
 1938 0004 2346     		mov	r3, r4
 1939 0006 13F8010B 		ldrb	r0, [r3], #1	@ zero_extendqisi2
 1940 000a 2421     		movs	r1, #36
 1941 000c 0522     		movs	r2, #5
 1942 000e FFF7FEFF 		bl	I2Cdev_readBit
 1943              	.LVL105:
 784:.\MPU6050/MPU6050.c ****     return mpu6050.buffer[0];
 1944              		.loc 1 784 0
 1945 0012 6078     		ldrb	r0, [r4, #1]	@ zero_extendqisi2
 785:.\MPU6050/MPU6050.c **** }
 1946              		.loc 1 785 0
 1947 0014 0030     		adds	r0, r0, #0
 1948 0016 18BF     		it	ne
 1949 0018 0120     		movne	r0, #1
 1950 001a 10BD     		pop	{r4, pc}
 1951              	.L215:
ARM GAS  C:\Users\satomin\AppData\Local\Temp\ccS6UKJQ.s 			page 49


 1952              		.align	2
 1953              	.L214:
 1954 001c 00000000 		.word	mpu6050
 1955              		.cfi_endproc
 1956              	.LFE118:
 1957              		.size	MPU6050_getSlave3FIFOEnabled, .-MPU6050_getSlave3FIFOEnabled
 1958              		.section	.text.MPU6050_setSlave3FIFOEnabled,"ax",%progbits
 1959              		.align	2
 1960              		.global	MPU6050_setSlave3FIFOEnabled
 1961              		.thumb
 1962              		.thumb_func
 1963              		.type	MPU6050_setSlave3FIFOEnabled, %function
 1964              	MPU6050_setSlave3FIFOEnabled:
 1965              	.LFB119:
 786:.\MPU6050/MPU6050.c **** /** Set Slave 3 FIFO enabled value.
 787:.\MPU6050/MPU6050.c ****  * @param enabled New Slave 3 FIFO enabled value
 788:.\MPU6050/MPU6050.c ****  * @see getSlave3FIFOEnabled()
 789:.\MPU6050/MPU6050.c ****  * @see MPU6050_RA_MST_CTRL
 790:.\MPU6050/MPU6050.c ****  */
 791:.\MPU6050/MPU6050.c **** void MPU6050_setSlave3FIFOEnabled(bool enabled) {
 1966              		.loc 1 791 0
 1967              		.cfi_startproc
 1968              		@ args = 0, pretend = 0, frame = 0
 1969              		@ frame_needed = 0, uses_anonymous_args = 0
 1970              	.LVL106:
 1971 0000 08B5     		push	{r3, lr}
 1972              		.cfi_def_cfa_offset 8
 1973              		.cfi_offset 3, -8
 1974              		.cfi_offset 14, -4
 1975 0002 0346     		mov	r3, r0
 792:.\MPU6050/MPU6050.c ****     I2Cdev_writeBit(mpu6050.devAddr, MPU6050_RA_I2C_MST_CTRL, MPU6050_SLV_3_FIFO_EN_BIT, enabled);
 1976              		.loc 1 792 0
 1977 0004 034A     		ldr	r2, .L218
 1978 0006 1078     		ldrb	r0, [r2]	@ zero_extendqisi2
 1979              	.LVL107:
 1980 0008 2421     		movs	r1, #36
 1981 000a 0522     		movs	r2, #5
 1982 000c FFF7FEFF 		bl	I2Cdev_writeBit
 1983              	.LVL108:
 1984 0010 08BD     		pop	{r3, pc}
 1985              	.L219:
 1986 0012 00BF     		.align	2
 1987              	.L218:
 1988 0014 00000000 		.word	mpu6050
 1989              		.cfi_endproc
 1990              	.LFE119:
 1991              		.size	MPU6050_setSlave3FIFOEnabled, .-MPU6050_setSlave3FIFOEnabled
 1992              		.section	.text.MPU6050_getSlaveReadWriteTransitionEnabled,"ax",%progbits
 1993              		.align	2
 1994              		.global	MPU6050_getSlaveReadWriteTransitionEnabled
 1995              		.thumb
 1996              		.thumb_func
 1997              		.type	MPU6050_getSlaveReadWriteTransitionEnabled, %function
 1998              	MPU6050_getSlaveReadWriteTransitionEnabled:
 1999              	.LFB120:
 793:.\MPU6050/MPU6050.c **** }
 794:.\MPU6050/MPU6050.c **** /** Get slave read/write transition enabled value.
ARM GAS  C:\Users\satomin\AppData\Local\Temp\ccS6UKJQ.s 			page 50


 795:.\MPU6050/MPU6050.c ****  * The I2C_MST_P_NSR bit configures the I2C Master's transition from one slave
 796:.\MPU6050/MPU6050.c ****  * read to the next slave read. If the bit equals 0, there will be a restart
 797:.\MPU6050/MPU6050.c ****  * between reads. If the bit equals 1, there will be a stop followed by a start
 798:.\MPU6050/MPU6050.c ****  * of the following read. When a write transaction follows a read transaction,
 799:.\MPU6050/MPU6050.c ****  * the stop followed by a start of the successive write will be always used.
 800:.\MPU6050/MPU6050.c ****  *
 801:.\MPU6050/MPU6050.c ****  * @return Current slave read/write transition enabled value
 802:.\MPU6050/MPU6050.c ****  * @see MPU6050_RA_I2C_MST_CTRL
 803:.\MPU6050/MPU6050.c ****  */
 804:.\MPU6050/MPU6050.c **** bool MPU6050_getSlaveReadWriteTransitionEnabled() {
 2000              		.loc 1 804 0
 2001              		.cfi_startproc
 2002              		@ args = 0, pretend = 0, frame = 0
 2003              		@ frame_needed = 0, uses_anonymous_args = 0
 2004 0000 10B5     		push	{r4, lr}
 2005              		.cfi_def_cfa_offset 8
 2006              		.cfi_offset 4, -8
 2007              		.cfi_offset 14, -4
 805:.\MPU6050/MPU6050.c ****     I2Cdev_readBit(mpu6050.devAddr, MPU6050_RA_I2C_MST_CTRL, MPU6050_I2C_MST_P_NSR_BIT, mpu6050.buf
 2008              		.loc 1 805 0
 2009 0002 064C     		ldr	r4, .L222
 2010 0004 2346     		mov	r3, r4
 2011 0006 13F8010B 		ldrb	r0, [r3], #1	@ zero_extendqisi2
 2012 000a 2421     		movs	r1, #36
 2013 000c 0422     		movs	r2, #4
 2014 000e FFF7FEFF 		bl	I2Cdev_readBit
 2015              	.LVL109:
 806:.\MPU6050/MPU6050.c ****     return mpu6050.buffer[0];
 2016              		.loc 1 806 0
 2017 0012 6078     		ldrb	r0, [r4, #1]	@ zero_extendqisi2
 807:.\MPU6050/MPU6050.c **** }
 2018              		.loc 1 807 0
 2019 0014 0030     		adds	r0, r0, #0
 2020 0016 18BF     		it	ne
 2021 0018 0120     		movne	r0, #1
 2022 001a 10BD     		pop	{r4, pc}
 2023              	.L223:
 2024              		.align	2
 2025              	.L222:
 2026 001c 00000000 		.word	mpu6050
 2027              		.cfi_endproc
 2028              	.LFE120:
 2029              		.size	MPU6050_getSlaveReadWriteTransitionEnabled, .-MPU6050_getSlaveReadWriteTransitionEnabled
 2030              		.section	.text.MPU6050_setSlaveReadWriteTransitionEnabled,"ax",%progbits
 2031              		.align	2
 2032              		.global	MPU6050_setSlaveReadWriteTransitionEnabled
 2033              		.thumb
 2034              		.thumb_func
 2035              		.type	MPU6050_setSlaveReadWriteTransitionEnabled, %function
 2036              	MPU6050_setSlaveReadWriteTransitionEnabled:
 2037              	.LFB121:
 808:.\MPU6050/MPU6050.c **** /** Set slave read/write transition enabled value.
 809:.\MPU6050/MPU6050.c ****  * @param enabled New slave read/write transition enabled value
 810:.\MPU6050/MPU6050.c ****  * @see getSlaveReadWriteTransitionEnabled()
 811:.\MPU6050/MPU6050.c ****  * @see MPU6050_RA_I2C_MST_CTRL
 812:.\MPU6050/MPU6050.c ****  */
 813:.\MPU6050/MPU6050.c **** void MPU6050_setSlaveReadWriteTransitionEnabled(bool enabled) {
ARM GAS  C:\Users\satomin\AppData\Local\Temp\ccS6UKJQ.s 			page 51


 2038              		.loc 1 813 0
 2039              		.cfi_startproc
 2040              		@ args = 0, pretend = 0, frame = 0
 2041              		@ frame_needed = 0, uses_anonymous_args = 0
 2042              	.LVL110:
 2043 0000 08B5     		push	{r3, lr}
 2044              		.cfi_def_cfa_offset 8
 2045              		.cfi_offset 3, -8
 2046              		.cfi_offset 14, -4
 2047 0002 0346     		mov	r3, r0
 814:.\MPU6050/MPU6050.c ****     I2Cdev_writeBit(mpu6050.devAddr, MPU6050_RA_I2C_MST_CTRL, MPU6050_I2C_MST_P_NSR_BIT, enabled);
 2048              		.loc 1 814 0
 2049 0004 034A     		ldr	r2, .L226
 2050 0006 1078     		ldrb	r0, [r2]	@ zero_extendqisi2
 2051              	.LVL111:
 2052 0008 2421     		movs	r1, #36
 2053 000a 0422     		movs	r2, #4
 2054 000c FFF7FEFF 		bl	I2Cdev_writeBit
 2055              	.LVL112:
 2056 0010 08BD     		pop	{r3, pc}
 2057              	.L227:
 2058 0012 00BF     		.align	2
 2059              	.L226:
 2060 0014 00000000 		.word	mpu6050
 2061              		.cfi_endproc
 2062              	.LFE121:
 2063              		.size	MPU6050_setSlaveReadWriteTransitionEnabled, .-MPU6050_setSlaveReadWriteTransitionEnabled
 2064              		.section	.text.MPU6050_getMasterClockSpeed,"ax",%progbits
 2065              		.align	2
 2066              		.global	MPU6050_getMasterClockSpeed
 2067              		.thumb
 2068              		.thumb_func
 2069              		.type	MPU6050_getMasterClockSpeed, %function
 2070              	MPU6050_getMasterClockSpeed:
 2071              	.LFB122:
 815:.\MPU6050/MPU6050.c **** }
 816:.\MPU6050/MPU6050.c **** /** Get I2C master clock speed.
 817:.\MPU6050/MPU6050.c ****  * I2C_MST_CLK is a 4 bit unsigned value which configures a divider on the
 818:.\MPU6050/MPU6050.c ****  * MPU-60X0 internal 8MHz clock. It sets the I2C master clock speed according to
 819:.\MPU6050/MPU6050.c ****  * the following table:
 820:.\MPU6050/MPU6050.c ****  *
 821:.\MPU6050/MPU6050.c ****  * <pre>
 822:.\MPU6050/MPU6050.c ****  * I2C_MST_CLK | I2C Master Clock Speed | 8MHz Clock Divider
 823:.\MPU6050/MPU6050.c ****  * ------------+------------------------+-------------------
 824:.\MPU6050/MPU6050.c ****  * 0           | 348kHz                 | 23
 825:.\MPU6050/MPU6050.c ****  * 1           | 333kHz                 | 24
 826:.\MPU6050/MPU6050.c ****  * 2           | 320kHz                 | 25
 827:.\MPU6050/MPU6050.c ****  * 3           | 308kHz                 | 26
 828:.\MPU6050/MPU6050.c ****  * 4           | 296kHz                 | 27
 829:.\MPU6050/MPU6050.c ****  * 5           | 286kHz                 | 28
 830:.\MPU6050/MPU6050.c ****  * 6           | 276kHz                 | 29
 831:.\MPU6050/MPU6050.c ****  * 7           | 267kHz                 | 30
 832:.\MPU6050/MPU6050.c ****  * 8           | 258kHz                 | 31
 833:.\MPU6050/MPU6050.c ****  * 9           | 500kHz                 | 16
 834:.\MPU6050/MPU6050.c ****  * 10          | 471kHz                 | 17
 835:.\MPU6050/MPU6050.c ****  * 11          | 444kHz                 | 18
 836:.\MPU6050/MPU6050.c ****  * 12          | 421kHz                 | 19
ARM GAS  C:\Users\satomin\AppData\Local\Temp\ccS6UKJQ.s 			page 52


 837:.\MPU6050/MPU6050.c ****  * 13          | 400kHz                 | 20
 838:.\MPU6050/MPU6050.c ****  * 14          | 381kHz                 | 21
 839:.\MPU6050/MPU6050.c ****  * 15          | 364kHz                 | 22
 840:.\MPU6050/MPU6050.c ****  * </pre>
 841:.\MPU6050/MPU6050.c ****  *
 842:.\MPU6050/MPU6050.c ****  * @return Current I2C master clock speed
 843:.\MPU6050/MPU6050.c ****  * @see MPU6050_RA_I2C_MST_CTRL
 844:.\MPU6050/MPU6050.c ****  */
 845:.\MPU6050/MPU6050.c **** uint8_t MPU6050_getMasterClockSpeed() {
 2072              		.loc 1 845 0
 2073              		.cfi_startproc
 2074              		@ args = 0, pretend = 0, frame = 0
 2075              		@ frame_needed = 0, uses_anonymous_args = 0
 2076 0000 10B5     		push	{r4, lr}
 2077              		.cfi_def_cfa_offset 8
 2078              		.cfi_offset 4, -8
 2079              		.cfi_offset 14, -4
 2080 0002 82B0     		sub	sp, sp, #8
 2081              		.cfi_def_cfa_offset 16
 846:.\MPU6050/MPU6050.c ****     I2Cdev_readBits(mpu6050.devAddr, MPU6050_RA_I2C_MST_CTRL, MPU6050_I2C_MST_CLK_BIT, MPU6050_I2C_
 2082              		.loc 1 846 0
 2083 0004 064C     		ldr	r4, .L230
 2084 0006 2346     		mov	r3, r4
 2085 0008 13F8010B 		ldrb	r0, [r3], #1	@ zero_extendqisi2
 2086 000c 0093     		str	r3, [sp]
 2087 000e 2421     		movs	r1, #36
 2088 0010 0322     		movs	r2, #3
 2089 0012 0423     		movs	r3, #4
 2090 0014 FFF7FEFF 		bl	I2Cdev_readBits
 2091              	.LVL113:
 847:.\MPU6050/MPU6050.c ****     return mpu6050.buffer[0];
 848:.\MPU6050/MPU6050.c **** }
 2092              		.loc 1 848 0
 2093 0018 6078     		ldrb	r0, [r4, #1]	@ zero_extendqisi2
 2094 001a 02B0     		add	sp, sp, #8
 2095              		.cfi_def_cfa_offset 8
 2096              		@ sp needed
 2097 001c 10BD     		pop	{r4, pc}
 2098              	.L231:
 2099 001e 00BF     		.align	2
 2100              	.L230:
 2101 0020 00000000 		.word	mpu6050
 2102              		.cfi_endproc
 2103              	.LFE122:
 2104              		.size	MPU6050_getMasterClockSpeed, .-MPU6050_getMasterClockSpeed
 2105              		.section	.text.MPU6050_setMasterClockSpeed,"ax",%progbits
 2106              		.align	2
 2107              		.global	MPU6050_setMasterClockSpeed
 2108              		.thumb
 2109              		.thumb_func
 2110              		.type	MPU6050_setMasterClockSpeed, %function
 2111              	MPU6050_setMasterClockSpeed:
 2112              	.LFB123:
 849:.\MPU6050/MPU6050.c **** /** Set I2C master clock speed.
 850:.\MPU6050/MPU6050.c ****  * @reparam speed Current I2C master clock speed
 851:.\MPU6050/MPU6050.c ****  * @see MPU6050_RA_I2C_MST_CTRL
 852:.\MPU6050/MPU6050.c ****  */
ARM GAS  C:\Users\satomin\AppData\Local\Temp\ccS6UKJQ.s 			page 53


 853:.\MPU6050/MPU6050.c **** void MPU6050_setMasterClockSpeed(uint8_t speed) {
 2113              		.loc 1 853 0
 2114              		.cfi_startproc
 2115              		@ args = 0, pretend = 0, frame = 0
 2116              		@ frame_needed = 0, uses_anonymous_args = 0
 2117              	.LVL114:
 2118 0000 00B5     		push	{lr}
 2119              		.cfi_def_cfa_offset 4
 2120              		.cfi_offset 14, -4
 2121 0002 83B0     		sub	sp, sp, #12
 2122              		.cfi_def_cfa_offset 16
 854:.\MPU6050/MPU6050.c ****     I2Cdev_writeBits(mpu6050.devAddr, MPU6050_RA_I2C_MST_CTRL, MPU6050_I2C_MST_CLK_BIT, MPU6050_I2C
 2123              		.loc 1 854 0
 2124 0004 054B     		ldr	r3, .L234
 2125 0006 1B78     		ldrb	r3, [r3]	@ zero_extendqisi2
 2126 0008 0090     		str	r0, [sp]
 2127 000a 1846     		mov	r0, r3
 2128              	.LVL115:
 2129 000c 2421     		movs	r1, #36
 2130 000e 0322     		movs	r2, #3
 2131 0010 0423     		movs	r3, #4
 2132 0012 FFF7FEFF 		bl	I2Cdev_writeBits
 2133              	.LVL116:
 855:.\MPU6050/MPU6050.c **** }
 2134              		.loc 1 855 0
 2135 0016 03B0     		add	sp, sp, #12
 2136              		.cfi_def_cfa_offset 4
 2137              		@ sp needed
 2138 0018 5DF804FB 		ldr	pc, [sp], #4
 2139              	.L235:
 2140              		.align	2
 2141              	.L234:
 2142 001c 00000000 		.word	mpu6050
 2143              		.cfi_endproc
 2144              	.LFE123:
 2145              		.size	MPU6050_setMasterClockSpeed, .-MPU6050_setMasterClockSpeed
 2146              		.section	.text.MPU6050_getSlaveAddress,"ax",%progbits
 2147              		.align	2
 2148              		.global	MPU6050_getSlaveAddress
 2149              		.thumb
 2150              		.thumb_func
 2151              		.type	MPU6050_getSlaveAddress, %function
 2152              	MPU6050_getSlaveAddress:
 2153              	.LFB124:
 856:.\MPU6050/MPU6050.c **** 
 857:.\MPU6050/MPU6050.c **** // I2C_SLV* registers (Slave 0-3)
 858:.\MPU6050/MPU6050.c **** 
 859:.\MPU6050/MPU6050.c **** /** Get the I2C address of the specified slave (0-3).
 860:.\MPU6050/MPU6050.c ****  * Note that Bit 7 (MSB) controls read/write mode. If Bit 7 is set, it's a read
 861:.\MPU6050/MPU6050.c ****  * operation, and if it is cleared, then it's a write operation. The remaining
 862:.\MPU6050/MPU6050.c ****  * bits (6-0) are the 7-bit device address of the slave device.
 863:.\MPU6050/MPU6050.c ****  *
 864:.\MPU6050/MPU6050.c ****  * In read mode, the result of the read is placed in the lowest available 
 865:.\MPU6050/MPU6050.c ****  * EXT_SENS_DATA register. For further information regarding the allocation of
 866:.\MPU6050/MPU6050.c ****  * read results, please refer to the EXT_SENS_DATA register description
 867:.\MPU6050/MPU6050.c ****  * (Registers 73 - 96).
 868:.\MPU6050/MPU6050.c ****  *
ARM GAS  C:\Users\satomin\AppData\Local\Temp\ccS6UKJQ.s 			page 54


 869:.\MPU6050/MPU6050.c ****  * The MPU-6050 supports a total of five slaves, but Slave 4 has unique
 870:.\MPU6050/MPU6050.c ****  * characteristics, and so it has its own functions (getSlave4* and setSlave4*).
 871:.\MPU6050/MPU6050.c ****  *
 872:.\MPU6050/MPU6050.c ****  * I2C data transactions are performed at the Sample Rate, as defined in
 873:.\MPU6050/MPU6050.c ****  * Register 25. The user is responsible for ensuring that I2C data transactions
 874:.\MPU6050/MPU6050.c ****  * to and from each enabled Slave can be completed within a single period of the
 875:.\MPU6050/MPU6050.c ****  * Sample Rate.
 876:.\MPU6050/MPU6050.c ****  *
 877:.\MPU6050/MPU6050.c ****  * The I2C slave access rate can be reduced relative to the Sample Rate. This
 878:.\MPU6050/MPU6050.c ****  * reduced access rate is determined by I2C_MST_DLY (Register 52). Whether a
 879:.\MPU6050/MPU6050.c ****  * slave's access rate is reduced relative to the Sample Rate is determined by
 880:.\MPU6050/MPU6050.c ****  * I2C_MST_DELAY_CTRL (Register 103).
 881:.\MPU6050/MPU6050.c ****  *
 882:.\MPU6050/MPU6050.c ****  * The processing order for the slaves is fixed. The sequence followed for
 883:.\MPU6050/MPU6050.c ****  * processing the slaves is Slave 0, Slave 1, Slave 2, Slave 3 and Slave 4. If a
 884:.\MPU6050/MPU6050.c ****  * particular Slave is disabled it will be skipped.
 885:.\MPU6050/MPU6050.c ****  *
 886:.\MPU6050/MPU6050.c ****  * Each slave can either be accessed at the sample rate or at a reduced sample
 887:.\MPU6050/MPU6050.c ****  * rate. In a case where some slaves are accessed at the Sample Rate and some
 888:.\MPU6050/MPU6050.c ****  * slaves are accessed at the reduced rate, the sequence of accessing the slaves
 889:.\MPU6050/MPU6050.c ****  * (Slave 0 to Slave 4) is still followed. However, the reduced rate slaves will
 890:.\MPU6050/MPU6050.c ****  * be skipped if their access rate dictates that they should not be accessed
 891:.\MPU6050/MPU6050.c ****  * during that particular cycle. For further information regarding the reduced
 892:.\MPU6050/MPU6050.c ****  * access rate, please refer to Register 52. Whether a slave is accessed at the
 893:.\MPU6050/MPU6050.c ****  * Sample Rate or at the reduced rate is determined by the Delay Enable bits in
 894:.\MPU6050/MPU6050.c ****  * Register 103.
 895:.\MPU6050/MPU6050.c ****  *
 896:.\MPU6050/MPU6050.c ****  * @param num Slave number (0-3)
 897:.\MPU6050/MPU6050.c ****  * @return Current address for specified slave
 898:.\MPU6050/MPU6050.c ****  * @see MPU6050_RA_I2C_SLV0_ADDR
 899:.\MPU6050/MPU6050.c ****  */
 900:.\MPU6050/MPU6050.c **** uint8_t MPU6050_getSlaveAddress(uint8_t num) {
 2154              		.loc 1 900 0
 2155              		.cfi_startproc
 2156              		@ args = 0, pretend = 0, frame = 0
 2157              		@ frame_needed = 0, uses_anonymous_args = 0
 2158              	.LVL117:
 901:.\MPU6050/MPU6050.c ****     if (num > 3) return 0;
 2159              		.loc 1 901 0
 2160 0000 0328     		cmp	r0, #3
 2161 0002 0DD8     		bhi	.L238
 900:.\MPU6050/MPU6050.c ****     if (num > 3) return 0;
 2162              		.loc 1 900 0
 2163 0004 10B5     		push	{r4, lr}
 2164              		.cfi_def_cfa_offset 8
 2165              		.cfi_offset 4, -8
 2166              		.cfi_offset 14, -4
 902:.\MPU6050/MPU6050.c ****     I2Cdev_readByte(mpu6050.devAddr, MPU6050_RA_I2C_SLV0_ADDR + num*3, mpu6050.buffer);
 2167              		.loc 1 902 0
 2168 0006 074C     		ldr	r4, .L241
 2169 0008 2246     		mov	r2, r4
 2170 000a 00EB4000 		add	r0, r0, r0, lsl #1
 2171              	.LVL118:
 2172 000e 00F12501 		add	r1, r0, #37
 2173 0012 12F8010B 		ldrb	r0, [r2], #1	@ zero_extendqisi2
 2174 0016 C9B2     		uxtb	r1, r1
 2175 0018 FFF7FEFF 		bl	I2Cdev_readByte
ARM GAS  C:\Users\satomin\AppData\Local\Temp\ccS6UKJQ.s 			page 55


 2176              	.LVL119:
 903:.\MPU6050/MPU6050.c ****     return mpu6050.buffer[0];
 2177              		.loc 1 903 0
 2178 001c 6078     		ldrb	r0, [r4, #1]	@ zero_extendqisi2
 2179 001e 10BD     		pop	{r4, pc}
 2180              	.LVL120:
 2181              	.L238:
 2182              		.cfi_def_cfa_offset 0
 2183              		.cfi_restore 4
 2184              		.cfi_restore 14
 901:.\MPU6050/MPU6050.c ****     I2Cdev_readByte(mpu6050.devAddr, MPU6050_RA_I2C_SLV0_ADDR + num*3, mpu6050.buffer);
 2185              		.loc 1 901 0
 2186 0020 0020     		movs	r0, #0
 2187              	.LVL121:
 2188 0022 7047     		bx	lr
 2189              	.L242:
 2190              		.align	2
 2191              	.L241:
 2192 0024 00000000 		.word	mpu6050
 2193              		.cfi_endproc
 2194              	.LFE124:
 2195              		.size	MPU6050_getSlaveAddress, .-MPU6050_getSlaveAddress
 2196              		.section	.text.MPU6050_setSlaveAddress,"ax",%progbits
 2197              		.align	2
 2198              		.global	MPU6050_setSlaveAddress
 2199              		.thumb
 2200              		.thumb_func
 2201              		.type	MPU6050_setSlaveAddress, %function
 2202              	MPU6050_setSlaveAddress:
 2203              	.LFB125:
 904:.\MPU6050/MPU6050.c **** }
 905:.\MPU6050/MPU6050.c **** /** Set the I2C address of the specified slave (0-3).
 906:.\MPU6050/MPU6050.c ****  * @param num Slave number (0-3)
 907:.\MPU6050/MPU6050.c ****  * @param address New address for specified slave
 908:.\MPU6050/MPU6050.c ****  * @see getSlaveAddress()
 909:.\MPU6050/MPU6050.c ****  * @see MPU6050_RA_I2C_SLV0_ADDR
 910:.\MPU6050/MPU6050.c ****  */
 911:.\MPU6050/MPU6050.c **** void MPU6050_setSlaveAddress(uint8_t num, uint8_t address) {
 2204              		.loc 1 911 0
 2205              		.cfi_startproc
 2206              		@ args = 0, pretend = 0, frame = 0
 2207              		@ frame_needed = 0, uses_anonymous_args = 0
 2208              	.LVL122:
 912:.\MPU6050/MPU6050.c ****     if (num > 3) return;
 2209              		.loc 1 912 0
 2210 0000 0328     		cmp	r0, #3
 2211 0002 0BD8     		bhi	.L246
 911:.\MPU6050/MPU6050.c ****     if (num > 3) return;
 2212              		.loc 1 911 0
 2213 0004 08B5     		push	{r3, lr}
 2214              		.cfi_def_cfa_offset 8
 2215              		.cfi_offset 3, -8
 2216              		.cfi_offset 14, -4
 2217 0006 0A46     		mov	r2, r1
 913:.\MPU6050/MPU6050.c ****     I2Cdev_writeByte(mpu6050.devAddr, MPU6050_RA_I2C_SLV0_ADDR + num*3, address);
 2218              		.loc 1 913 0
 2219 0008 00EB4000 		add	r0, r0, r0, lsl #1
ARM GAS  C:\Users\satomin\AppData\Local\Temp\ccS6UKJQ.s 			page 56


 2220              	.LVL123:
 2221 000c 00F12503 		add	r3, r0, #37
 2222 0010 0349     		ldr	r1, .L247
 2223              	.LVL124:
 2224 0012 0878     		ldrb	r0, [r1]	@ zero_extendqisi2
 2225 0014 D9B2     		uxtb	r1, r3
 2226 0016 FFF7FEFF 		bl	I2Cdev_writeByte
 2227              	.LVL125:
 2228 001a 08BD     		pop	{r3, pc}
 2229              	.LVL126:
 2230              	.L246:
 2231              		.cfi_def_cfa_offset 0
 2232              		.cfi_restore 3
 2233              		.cfi_restore 14
 2234 001c 7047     		bx	lr
 2235              	.L248:
 2236 001e 00BF     		.align	2
 2237              	.L247:
 2238 0020 00000000 		.word	mpu6050
 2239              		.cfi_endproc
 2240              	.LFE125:
 2241              		.size	MPU6050_setSlaveAddress, .-MPU6050_setSlaveAddress
 2242              		.section	.text.MPU6050_getSlaveRegister,"ax",%progbits
 2243              		.align	2
 2244              		.global	MPU6050_getSlaveRegister
 2245              		.thumb
 2246              		.thumb_func
 2247              		.type	MPU6050_getSlaveRegister, %function
 2248              	MPU6050_getSlaveRegister:
 2249              	.LFB126:
 914:.\MPU6050/MPU6050.c **** }
 915:.\MPU6050/MPU6050.c **** /** Get the active internal register for the specified slave (0-3).
 916:.\MPU6050/MPU6050.c ****  * Read/write operations for this slave will be done to whatever internal
 917:.\MPU6050/MPU6050.c ****  * register address is stored in this MPU register.
 918:.\MPU6050/MPU6050.c ****  *
 919:.\MPU6050/MPU6050.c ****  * The MPU-6050 supports a total of five slaves, but Slave 4 has unique
 920:.\MPU6050/MPU6050.c ****  * characteristics, and so it has its own functions.
 921:.\MPU6050/MPU6050.c ****  *
 922:.\MPU6050/MPU6050.c ****  * @param num Slave number (0-3)
 923:.\MPU6050/MPU6050.c ****  * @return Current active register for specified slave
 924:.\MPU6050/MPU6050.c ****  * @see MPU6050_RA_I2C_SLV0_REG
 925:.\MPU6050/MPU6050.c ****  */
 926:.\MPU6050/MPU6050.c **** uint8_t MPU6050_getSlaveRegister(uint8_t num) {
 2250              		.loc 1 926 0
 2251              		.cfi_startproc
 2252              		@ args = 0, pretend = 0, frame = 0
 2253              		@ frame_needed = 0, uses_anonymous_args = 0
 2254              	.LVL127:
 927:.\MPU6050/MPU6050.c ****     if (num > 3) return 0;
 2255              		.loc 1 927 0
 2256 0000 0328     		cmp	r0, #3
 2257 0002 0DD8     		bhi	.L251
 926:.\MPU6050/MPU6050.c ****     if (num > 3) return 0;
 2258              		.loc 1 926 0
 2259 0004 10B5     		push	{r4, lr}
 2260              		.cfi_def_cfa_offset 8
 2261              		.cfi_offset 4, -8
ARM GAS  C:\Users\satomin\AppData\Local\Temp\ccS6UKJQ.s 			page 57


 2262              		.cfi_offset 14, -4
 928:.\MPU6050/MPU6050.c ****     I2Cdev_readByte(mpu6050.devAddr, MPU6050_RA_I2C_SLV0_REG + num*3, mpu6050.buffer);
 2263              		.loc 1 928 0
 2264 0006 074C     		ldr	r4, .L254
 2265 0008 2246     		mov	r2, r4
 2266 000a 00EB4000 		add	r0, r0, r0, lsl #1
 2267              	.LVL128:
 2268 000e 00F12601 		add	r1, r0, #38
 2269 0012 12F8010B 		ldrb	r0, [r2], #1	@ zero_extendqisi2
 2270 0016 C9B2     		uxtb	r1, r1
 2271 0018 FFF7FEFF 		bl	I2Cdev_readByte
 2272              	.LVL129:
 929:.\MPU6050/MPU6050.c ****     return mpu6050.buffer[0];
 2273              		.loc 1 929 0
 2274 001c 6078     		ldrb	r0, [r4, #1]	@ zero_extendqisi2
 2275 001e 10BD     		pop	{r4, pc}
 2276              	.LVL130:
 2277              	.L251:
 2278              		.cfi_def_cfa_offset 0
 2279              		.cfi_restore 4
 2280              		.cfi_restore 14
 927:.\MPU6050/MPU6050.c ****     I2Cdev_readByte(mpu6050.devAddr, MPU6050_RA_I2C_SLV0_REG + num*3, mpu6050.buffer);
 2281              		.loc 1 927 0
 2282 0020 0020     		movs	r0, #0
 2283              	.LVL131:
 2284 0022 7047     		bx	lr
 2285              	.L255:
 2286              		.align	2
 2287              	.L254:
 2288 0024 00000000 		.word	mpu6050
 2289              		.cfi_endproc
 2290              	.LFE126:
 2291              		.size	MPU6050_getSlaveRegister, .-MPU6050_getSlaveRegister
 2292              		.section	.text.MPU6050_setSlaveRegister,"ax",%progbits
 2293              		.align	2
 2294              		.global	MPU6050_setSlaveRegister
 2295              		.thumb
 2296              		.thumb_func
 2297              		.type	MPU6050_setSlaveRegister, %function
 2298              	MPU6050_setSlaveRegister:
 2299              	.LFB127:
 930:.\MPU6050/MPU6050.c **** }
 931:.\MPU6050/MPU6050.c **** /** Set the active internal register for the specified slave (0-3).
 932:.\MPU6050/MPU6050.c ****  * @param num Slave number (0-3)
 933:.\MPU6050/MPU6050.c ****  * @param reg New active register for specified slave
 934:.\MPU6050/MPU6050.c ****  * @see getSlaveRegister()
 935:.\MPU6050/MPU6050.c ****  * @see MPU6050_RA_I2C_SLV0_REG
 936:.\MPU6050/MPU6050.c ****  */
 937:.\MPU6050/MPU6050.c **** void MPU6050_setSlaveRegister(uint8_t num, uint8_t reg) {
 2300              		.loc 1 937 0
 2301              		.cfi_startproc
 2302              		@ args = 0, pretend = 0, frame = 0
 2303              		@ frame_needed = 0, uses_anonymous_args = 0
 2304              	.LVL132:
 938:.\MPU6050/MPU6050.c ****     if (num > 3) return;
 2305              		.loc 1 938 0
 2306 0000 0328     		cmp	r0, #3
ARM GAS  C:\Users\satomin\AppData\Local\Temp\ccS6UKJQ.s 			page 58


 2307 0002 0BD8     		bhi	.L259
 937:.\MPU6050/MPU6050.c ****     if (num > 3) return;
 2308              		.loc 1 937 0
 2309 0004 08B5     		push	{r3, lr}
 2310              		.cfi_def_cfa_offset 8
 2311              		.cfi_offset 3, -8
 2312              		.cfi_offset 14, -4
 2313 0006 0A46     		mov	r2, r1
 939:.\MPU6050/MPU6050.c ****     I2Cdev_writeByte(mpu6050.devAddr, MPU6050_RA_I2C_SLV0_REG + num*3, reg);
 2314              		.loc 1 939 0
 2315 0008 00EB4000 		add	r0, r0, r0, lsl #1
 2316              	.LVL133:
 2317 000c 00F12603 		add	r3, r0, #38
 2318 0010 0349     		ldr	r1, .L260
 2319              	.LVL134:
 2320 0012 0878     		ldrb	r0, [r1]	@ zero_extendqisi2
 2321 0014 D9B2     		uxtb	r1, r3
 2322 0016 FFF7FEFF 		bl	I2Cdev_writeByte
 2323              	.LVL135:
 2324 001a 08BD     		pop	{r3, pc}
 2325              	.LVL136:
 2326              	.L259:
 2327              		.cfi_def_cfa_offset 0
 2328              		.cfi_restore 3
 2329              		.cfi_restore 14
 2330 001c 7047     		bx	lr
 2331              	.L261:
 2332 001e 00BF     		.align	2
 2333              	.L260:
 2334 0020 00000000 		.word	mpu6050
 2335              		.cfi_endproc
 2336              	.LFE127:
 2337              		.size	MPU6050_setSlaveRegister, .-MPU6050_setSlaveRegister
 2338              		.section	.text.MPU6050_getSlaveEnabled,"ax",%progbits
 2339              		.align	2
 2340              		.global	MPU6050_getSlaveEnabled
 2341              		.thumb
 2342              		.thumb_func
 2343              		.type	MPU6050_getSlaveEnabled, %function
 2344              	MPU6050_getSlaveEnabled:
 2345              	.LFB128:
 940:.\MPU6050/MPU6050.c **** }
 941:.\MPU6050/MPU6050.c **** /** Get the enabled value for the specified slave (0-3).
 942:.\MPU6050/MPU6050.c ****  * When set to 1, this bit enables Slave 0 for data transfer operations. When
 943:.\MPU6050/MPU6050.c ****  * cleared to 0, this bit disables Slave 0 from data transfer operations.
 944:.\MPU6050/MPU6050.c ****  * @param num Slave number (0-3)
 945:.\MPU6050/MPU6050.c ****  * @return Current enabled value for specified slave
 946:.\MPU6050/MPU6050.c ****  * @see MPU6050_RA_I2C_SLV0_CTRL
 947:.\MPU6050/MPU6050.c ****  */
 948:.\MPU6050/MPU6050.c **** bool MPU6050_getSlaveEnabled(uint8_t num) {
 2346              		.loc 1 948 0
 2347              		.cfi_startproc
 2348              		@ args = 0, pretend = 0, frame = 0
 2349              		@ frame_needed = 0, uses_anonymous_args = 0
 2350              	.LVL137:
 949:.\MPU6050/MPU6050.c ****     if (num > 3) return 0;
 2351              		.loc 1 949 0
ARM GAS  C:\Users\satomin\AppData\Local\Temp\ccS6UKJQ.s 			page 59


 2352 0000 0328     		cmp	r0, #3
 2353 0002 11D8     		bhi	.L264
 948:.\MPU6050/MPU6050.c ****     if (num > 3) return 0;
 2354              		.loc 1 948 0
 2355 0004 10B5     		push	{r4, lr}
 2356              		.cfi_def_cfa_offset 8
 2357              		.cfi_offset 4, -8
 2358              		.cfi_offset 14, -4
 950:.\MPU6050/MPU6050.c ****     I2Cdev_readBit(mpu6050.devAddr, MPU6050_RA_I2C_SLV0_CTRL + num*3, MPU6050_I2C_SLV_EN_BIT, mpu60
 2359              		.loc 1 950 0
 2360 0006 094C     		ldr	r4, .L267
 2361 0008 2346     		mov	r3, r4
 2362 000a 00EB4000 		add	r0, r0, r0, lsl #1
 2363              	.LVL138:
 2364 000e 00F12701 		add	r1, r0, #39
 2365 0012 13F8010B 		ldrb	r0, [r3], #1	@ zero_extendqisi2
 2366 0016 C9B2     		uxtb	r1, r1
 2367 0018 0722     		movs	r2, #7
 2368 001a FFF7FEFF 		bl	I2Cdev_readBit
 2369              	.LVL139:
 951:.\MPU6050/MPU6050.c ****     return mpu6050.buffer[0];
 2370              		.loc 1 951 0
 2371 001e 6078     		ldrb	r0, [r4, #1]	@ zero_extendqisi2
 2372 0020 0030     		adds	r0, r0, #0
 2373 0022 18BF     		it	ne
 2374 0024 0120     		movne	r0, #1
 2375 0026 10BD     		pop	{r4, pc}
 2376              	.LVL140:
 2377              	.L264:
 2378              		.cfi_def_cfa_offset 0
 2379              		.cfi_restore 4
 2380              		.cfi_restore 14
 949:.\MPU6050/MPU6050.c ****     I2Cdev_readBit(mpu6050.devAddr, MPU6050_RA_I2C_SLV0_CTRL + num*3, MPU6050_I2C_SLV_EN_BIT, mpu60
 2381              		.loc 1 949 0
 2382 0028 0020     		movs	r0, #0
 2383              	.LVL141:
 2384 002a 7047     		bx	lr
 2385              	.L268:
 2386              		.align	2
 2387              	.L267:
 2388 002c 00000000 		.word	mpu6050
 2389              		.cfi_endproc
 2390              	.LFE128:
 2391              		.size	MPU6050_getSlaveEnabled, .-MPU6050_getSlaveEnabled
 2392              		.section	.text.MPU6050_setSlaveEnabled,"ax",%progbits
 2393              		.align	2
 2394              		.global	MPU6050_setSlaveEnabled
 2395              		.thumb
 2396              		.thumb_func
 2397              		.type	MPU6050_setSlaveEnabled, %function
 2398              	MPU6050_setSlaveEnabled:
 2399              	.LFB129:
 952:.\MPU6050/MPU6050.c **** }
 953:.\MPU6050/MPU6050.c **** /** Set the enabled value for the specified slave (0-3).
 954:.\MPU6050/MPU6050.c ****  * @param num Slave number (0-3)
 955:.\MPU6050/MPU6050.c ****  * @param enabled New enabled value for specified slave
 956:.\MPU6050/MPU6050.c ****  * @see getSlaveEnabled()
ARM GAS  C:\Users\satomin\AppData\Local\Temp\ccS6UKJQ.s 			page 60


 957:.\MPU6050/MPU6050.c ****  * @see MPU6050_RA_I2C_SLV0_CTRL
 958:.\MPU6050/MPU6050.c ****  */
 959:.\MPU6050/MPU6050.c **** void MPU6050_setSlaveEnabled(uint8_t num, bool enabled) {
 2400              		.loc 1 959 0
 2401              		.cfi_startproc
 2402              		@ args = 0, pretend = 0, frame = 0
 2403              		@ frame_needed = 0, uses_anonymous_args = 0
 2404              	.LVL142:
 960:.\MPU6050/MPU6050.c ****     if (num > 3) return;
 2405              		.loc 1 960 0
 2406 0000 0328     		cmp	r0, #3
 2407 0002 0CD8     		bhi	.L272
 959:.\MPU6050/MPU6050.c ****     if (num > 3) return;
 2408              		.loc 1 959 0
 2409 0004 08B5     		push	{r3, lr}
 2410              		.cfi_def_cfa_offset 8
 2411              		.cfi_offset 3, -8
 2412              		.cfi_offset 14, -4
 2413 0006 0B46     		mov	r3, r1
 961:.\MPU6050/MPU6050.c ****     I2Cdev_writeBit(mpu6050.devAddr, MPU6050_RA_I2C_SLV0_CTRL + num*3, MPU6050_I2C_SLV_EN_BIT, enab
 2414              		.loc 1 961 0
 2415 0008 00EB4000 		add	r0, r0, r0, lsl #1
 2416              	.LVL143:
 2417 000c 00F12702 		add	r2, r0, #39
 2418 0010 0349     		ldr	r1, .L273
 2419              	.LVL144:
 2420 0012 0878     		ldrb	r0, [r1]	@ zero_extendqisi2
 2421 0014 D1B2     		uxtb	r1, r2
 2422 0016 0722     		movs	r2, #7
 2423 0018 FFF7FEFF 		bl	I2Cdev_writeBit
 2424              	.LVL145:
 2425 001c 08BD     		pop	{r3, pc}
 2426              	.LVL146:
 2427              	.L272:
 2428              		.cfi_def_cfa_offset 0
 2429              		.cfi_restore 3
 2430              		.cfi_restore 14
 2431 001e 7047     		bx	lr
 2432              	.L274:
 2433              		.align	2
 2434              	.L273:
 2435 0020 00000000 		.word	mpu6050
 2436              		.cfi_endproc
 2437              	.LFE129:
 2438              		.size	MPU6050_setSlaveEnabled, .-MPU6050_setSlaveEnabled
 2439              		.section	.text.MPU6050_getSlaveWordByteSwap,"ax",%progbits
 2440              		.align	2
 2441              		.global	MPU6050_getSlaveWordByteSwap
 2442              		.thumb
 2443              		.thumb_func
 2444              		.type	MPU6050_getSlaveWordByteSwap, %function
 2445              	MPU6050_getSlaveWordByteSwap:
 2446              	.LFB130:
 962:.\MPU6050/MPU6050.c **** }
 963:.\MPU6050/MPU6050.c **** /** Get word pair byte-swapping enabled for the specified slave (0-3).
 964:.\MPU6050/MPU6050.c ****  * When set to 1, this bit enables byte swapping. When byte swapping is enabled,
 965:.\MPU6050/MPU6050.c ****  * the high and low bytes of a word pair are swapped. Please refer to
ARM GAS  C:\Users\satomin\AppData\Local\Temp\ccS6UKJQ.s 			page 61


 966:.\MPU6050/MPU6050.c ****  * I2C_SLV0_GRP for the pairing convention of the word pairs. When cleared to 0,
 967:.\MPU6050/MPU6050.c ****  * bytes transferred to and from Slave 0 will be written to EXT_SENS_DATA
 968:.\MPU6050/MPU6050.c ****  * registers in the order they were transferred.
 969:.\MPU6050/MPU6050.c ****  *
 970:.\MPU6050/MPU6050.c ****  * @param num Slave number (0-3)
 971:.\MPU6050/MPU6050.c ****  * @return Current word pair byte-swapping enabled value for specified slave
 972:.\MPU6050/MPU6050.c ****  * @see MPU6050_RA_I2C_SLV0_CTRL
 973:.\MPU6050/MPU6050.c ****  */
 974:.\MPU6050/MPU6050.c **** bool MPU6050_getSlaveWordByteSwap(uint8_t num) {
 2447              		.loc 1 974 0
 2448              		.cfi_startproc
 2449              		@ args = 0, pretend = 0, frame = 0
 2450              		@ frame_needed = 0, uses_anonymous_args = 0
 2451              	.LVL147:
 975:.\MPU6050/MPU6050.c ****     if (num > 3) return 0;
 2452              		.loc 1 975 0
 2453 0000 0328     		cmp	r0, #3
 2454 0002 11D8     		bhi	.L277
 974:.\MPU6050/MPU6050.c ****     if (num > 3) return 0;
 2455              		.loc 1 974 0
 2456 0004 10B5     		push	{r4, lr}
 2457              		.cfi_def_cfa_offset 8
 2458              		.cfi_offset 4, -8
 2459              		.cfi_offset 14, -4
 976:.\MPU6050/MPU6050.c ****     I2Cdev_readBit(mpu6050.devAddr, MPU6050_RA_I2C_SLV0_CTRL + num*3, MPU6050_I2C_SLV_BYTE_SW_BIT, 
 2460              		.loc 1 976 0
 2461 0006 094C     		ldr	r4, .L280
 2462 0008 2346     		mov	r3, r4
 2463 000a 00EB4000 		add	r0, r0, r0, lsl #1
 2464              	.LVL148:
 2465 000e 00F12701 		add	r1, r0, #39
 2466 0012 13F8010B 		ldrb	r0, [r3], #1	@ zero_extendqisi2
 2467 0016 C9B2     		uxtb	r1, r1
 2468 0018 0622     		movs	r2, #6
 2469 001a FFF7FEFF 		bl	I2Cdev_readBit
 2470              	.LVL149:
 977:.\MPU6050/MPU6050.c ****     return mpu6050.buffer[0];
 2471              		.loc 1 977 0
 2472 001e 6078     		ldrb	r0, [r4, #1]	@ zero_extendqisi2
 2473 0020 0030     		adds	r0, r0, #0
 2474 0022 18BF     		it	ne
 2475 0024 0120     		movne	r0, #1
 2476 0026 10BD     		pop	{r4, pc}
 2477              	.LVL150:
 2478              	.L277:
 2479              		.cfi_def_cfa_offset 0
 2480              		.cfi_restore 4
 2481              		.cfi_restore 14
 975:.\MPU6050/MPU6050.c ****     I2Cdev_readBit(mpu6050.devAddr, MPU6050_RA_I2C_SLV0_CTRL + num*3, MPU6050_I2C_SLV_BYTE_SW_BIT, 
 2482              		.loc 1 975 0
 2483 0028 0020     		movs	r0, #0
 2484              	.LVL151:
 2485 002a 7047     		bx	lr
 2486              	.L281:
 2487              		.align	2
 2488              	.L280:
 2489 002c 00000000 		.word	mpu6050
ARM GAS  C:\Users\satomin\AppData\Local\Temp\ccS6UKJQ.s 			page 62


 2490              		.cfi_endproc
 2491              	.LFE130:
 2492              		.size	MPU6050_getSlaveWordByteSwap, .-MPU6050_getSlaveWordByteSwap
 2493              		.section	.text.MPU6050_setSlaveWordByteSwap,"ax",%progbits
 2494              		.align	2
 2495              		.global	MPU6050_setSlaveWordByteSwap
 2496              		.thumb
 2497              		.thumb_func
 2498              		.type	MPU6050_setSlaveWordByteSwap, %function
 2499              	MPU6050_setSlaveWordByteSwap:
 2500              	.LFB131:
 978:.\MPU6050/MPU6050.c **** }
 979:.\MPU6050/MPU6050.c **** /** Set word pair byte-swapping enabled for the specified slave (0-3).
 980:.\MPU6050/MPU6050.c ****  * @param num Slave number (0-3)
 981:.\MPU6050/MPU6050.c ****  * @param enabled New word pair byte-swapping enabled value for specified slave
 982:.\MPU6050/MPU6050.c ****  * @see getSlaveWordByteSwap()
 983:.\MPU6050/MPU6050.c ****  * @see MPU6050_RA_I2C_SLV0_CTRL
 984:.\MPU6050/MPU6050.c ****  */
 985:.\MPU6050/MPU6050.c **** void MPU6050_setSlaveWordByteSwap(uint8_t num, bool enabled) {
 2501              		.loc 1 985 0
 2502              		.cfi_startproc
 2503              		@ args = 0, pretend = 0, frame = 0
 2504              		@ frame_needed = 0, uses_anonymous_args = 0
 2505              	.LVL152:
 986:.\MPU6050/MPU6050.c ****     if (num > 3) return;
 2506              		.loc 1 986 0
 2507 0000 0328     		cmp	r0, #3
 2508 0002 0CD8     		bhi	.L285
 985:.\MPU6050/MPU6050.c ****     if (num > 3) return;
 2509              		.loc 1 985 0
 2510 0004 08B5     		push	{r3, lr}
 2511              		.cfi_def_cfa_offset 8
 2512              		.cfi_offset 3, -8
 2513              		.cfi_offset 14, -4
 2514 0006 0B46     		mov	r3, r1
 987:.\MPU6050/MPU6050.c ****     I2Cdev_writeBit(mpu6050.devAddr, MPU6050_RA_I2C_SLV0_CTRL + num*3, MPU6050_I2C_SLV_BYTE_SW_BIT,
 2515              		.loc 1 987 0
 2516 0008 00EB4000 		add	r0, r0, r0, lsl #1
 2517              	.LVL153:
 2518 000c 00F12702 		add	r2, r0, #39
 2519 0010 0349     		ldr	r1, .L286
 2520              	.LVL154:
 2521 0012 0878     		ldrb	r0, [r1]	@ zero_extendqisi2
 2522 0014 D1B2     		uxtb	r1, r2
 2523 0016 0622     		movs	r2, #6
 2524 0018 FFF7FEFF 		bl	I2Cdev_writeBit
 2525              	.LVL155:
 2526 001c 08BD     		pop	{r3, pc}
 2527              	.LVL156:
 2528              	.L285:
 2529              		.cfi_def_cfa_offset 0
 2530              		.cfi_restore 3
 2531              		.cfi_restore 14
 2532 001e 7047     		bx	lr
 2533              	.L287:
 2534              		.align	2
 2535              	.L286:
ARM GAS  C:\Users\satomin\AppData\Local\Temp\ccS6UKJQ.s 			page 63


 2536 0020 00000000 		.word	mpu6050
 2537              		.cfi_endproc
 2538              	.LFE131:
 2539              		.size	MPU6050_setSlaveWordByteSwap, .-MPU6050_setSlaveWordByteSwap
 2540              		.section	.text.MPU6050_getSlaveWriteMode,"ax",%progbits
 2541              		.align	2
 2542              		.global	MPU6050_getSlaveWriteMode
 2543              		.thumb
 2544              		.thumb_func
 2545              		.type	MPU6050_getSlaveWriteMode, %function
 2546              	MPU6050_getSlaveWriteMode:
 2547              	.LFB132:
 988:.\MPU6050/MPU6050.c **** }
 989:.\MPU6050/MPU6050.c **** /** Get write mode for the specified slave (0-3).
 990:.\MPU6050/MPU6050.c ****  * When set to 1, the transaction will read or write data only. When cleared to
 991:.\MPU6050/MPU6050.c ****  * 0, the transaction will write a register address prior to reading or writing
 992:.\MPU6050/MPU6050.c ****  * data. This should equal 0 when specifying the register address within the
 993:.\MPU6050/MPU6050.c ****  * Slave device to/from which the ensuing data transaction will take place.
 994:.\MPU6050/MPU6050.c ****  *
 995:.\MPU6050/MPU6050.c ****  * @param num Slave number (0-3)
 996:.\MPU6050/MPU6050.c ****  * @return Current write mode for specified slave (0 = register address + data, 1 = data only)
 997:.\MPU6050/MPU6050.c ****  * @see MPU6050_RA_I2C_SLV0_CTRL
 998:.\MPU6050/MPU6050.c ****  */
 999:.\MPU6050/MPU6050.c **** bool MPU6050_getSlaveWriteMode(uint8_t num) {
 2548              		.loc 1 999 0
 2549              		.cfi_startproc
 2550              		@ args = 0, pretend = 0, frame = 0
 2551              		@ frame_needed = 0, uses_anonymous_args = 0
 2552              	.LVL157:
1000:.\MPU6050/MPU6050.c ****     if (num > 3) return 0;
 2553              		.loc 1 1000 0
 2554 0000 0328     		cmp	r0, #3
 2555 0002 11D8     		bhi	.L290
 999:.\MPU6050/MPU6050.c ****     if (num > 3) return 0;
 2556              		.loc 1 999 0
 2557 0004 10B5     		push	{r4, lr}
 2558              		.cfi_def_cfa_offset 8
 2559              		.cfi_offset 4, -8
 2560              		.cfi_offset 14, -4
1001:.\MPU6050/MPU6050.c ****     I2Cdev_readBit(mpu6050.devAddr, MPU6050_RA_I2C_SLV0_CTRL + num*3, MPU6050_I2C_SLV_REG_DIS_BIT, 
 2561              		.loc 1 1001 0
 2562 0006 094C     		ldr	r4, .L293
 2563 0008 2346     		mov	r3, r4
 2564 000a 00EB4000 		add	r0, r0, r0, lsl #1
 2565              	.LVL158:
 2566 000e 00F12701 		add	r1, r0, #39
 2567 0012 13F8010B 		ldrb	r0, [r3], #1	@ zero_extendqisi2
 2568 0016 C9B2     		uxtb	r1, r1
 2569 0018 0522     		movs	r2, #5
 2570 001a FFF7FEFF 		bl	I2Cdev_readBit
 2571              	.LVL159:
1002:.\MPU6050/MPU6050.c ****     return mpu6050.buffer[0];
 2572              		.loc 1 1002 0
 2573 001e 6078     		ldrb	r0, [r4, #1]	@ zero_extendqisi2
 2574 0020 0030     		adds	r0, r0, #0
 2575 0022 18BF     		it	ne
 2576 0024 0120     		movne	r0, #1
ARM GAS  C:\Users\satomin\AppData\Local\Temp\ccS6UKJQ.s 			page 64


 2577 0026 10BD     		pop	{r4, pc}
 2578              	.LVL160:
 2579              	.L290:
 2580              		.cfi_def_cfa_offset 0
 2581              		.cfi_restore 4
 2582              		.cfi_restore 14
1000:.\MPU6050/MPU6050.c ****     I2Cdev_readBit(mpu6050.devAddr, MPU6050_RA_I2C_SLV0_CTRL + num*3, MPU6050_I2C_SLV_REG_DIS_BIT, 
 2583              		.loc 1 1000 0
 2584 0028 0020     		movs	r0, #0
 2585              	.LVL161:
 2586 002a 7047     		bx	lr
 2587              	.L294:
 2588              		.align	2
 2589              	.L293:
 2590 002c 00000000 		.word	mpu6050
 2591              		.cfi_endproc
 2592              	.LFE132:
 2593              		.size	MPU6050_getSlaveWriteMode, .-MPU6050_getSlaveWriteMode
 2594              		.section	.text.MPU6050_setSlaveWriteMode,"ax",%progbits
 2595              		.align	2
 2596              		.global	MPU6050_setSlaveWriteMode
 2597              		.thumb
 2598              		.thumb_func
 2599              		.type	MPU6050_setSlaveWriteMode, %function
 2600              	MPU6050_setSlaveWriteMode:
 2601              	.LFB133:
1003:.\MPU6050/MPU6050.c **** }
1004:.\MPU6050/MPU6050.c **** /** Set write mode for the specified slave (0-3).
1005:.\MPU6050/MPU6050.c ****  * @param num Slave number (0-3)
1006:.\MPU6050/MPU6050.c ****  * @param mode New write mode for specified slave (0 = register address + data, 1 = data only)
1007:.\MPU6050/MPU6050.c ****  * @see getSlaveWriteMode()
1008:.\MPU6050/MPU6050.c ****  * @see MPU6050_RA_I2C_SLV0_CTRL
1009:.\MPU6050/MPU6050.c ****  */
1010:.\MPU6050/MPU6050.c **** void MPU6050_setSlaveWriteMode(uint8_t num, bool mode) {
 2602              		.loc 1 1010 0
 2603              		.cfi_startproc
 2604              		@ args = 0, pretend = 0, frame = 0
 2605              		@ frame_needed = 0, uses_anonymous_args = 0
 2606              	.LVL162:
1011:.\MPU6050/MPU6050.c ****     if (num > 3) return;
 2607              		.loc 1 1011 0
 2608 0000 0328     		cmp	r0, #3
 2609 0002 0CD8     		bhi	.L298
1010:.\MPU6050/MPU6050.c ****     if (num > 3) return;
 2610              		.loc 1 1010 0
 2611 0004 08B5     		push	{r3, lr}
 2612              		.cfi_def_cfa_offset 8
 2613              		.cfi_offset 3, -8
 2614              		.cfi_offset 14, -4
 2615 0006 0B46     		mov	r3, r1
1012:.\MPU6050/MPU6050.c ****     I2Cdev_writeBit(mpu6050.devAddr, MPU6050_RA_I2C_SLV0_CTRL + num*3, MPU6050_I2C_SLV_REG_DIS_BIT,
 2616              		.loc 1 1012 0
 2617 0008 00EB4000 		add	r0, r0, r0, lsl #1
 2618              	.LVL163:
 2619 000c 00F12702 		add	r2, r0, #39
 2620 0010 0349     		ldr	r1, .L299
 2621              	.LVL164:
ARM GAS  C:\Users\satomin\AppData\Local\Temp\ccS6UKJQ.s 			page 65


 2622 0012 0878     		ldrb	r0, [r1]	@ zero_extendqisi2
 2623 0014 D1B2     		uxtb	r1, r2
 2624 0016 0522     		movs	r2, #5
 2625 0018 FFF7FEFF 		bl	I2Cdev_writeBit
 2626              	.LVL165:
 2627 001c 08BD     		pop	{r3, pc}
 2628              	.LVL166:
 2629              	.L298:
 2630              		.cfi_def_cfa_offset 0
 2631              		.cfi_restore 3
 2632              		.cfi_restore 14
 2633 001e 7047     		bx	lr
 2634              	.L300:
 2635              		.align	2
 2636              	.L299:
 2637 0020 00000000 		.word	mpu6050
 2638              		.cfi_endproc
 2639              	.LFE133:
 2640              		.size	MPU6050_setSlaveWriteMode, .-MPU6050_setSlaveWriteMode
 2641              		.section	.text.MPU6050_getSlaveWordGroupOffset,"ax",%progbits
 2642              		.align	2
 2643              		.global	MPU6050_getSlaveWordGroupOffset
 2644              		.thumb
 2645              		.thumb_func
 2646              		.type	MPU6050_getSlaveWordGroupOffset, %function
 2647              	MPU6050_getSlaveWordGroupOffset:
 2648              	.LFB134:
1013:.\MPU6050/MPU6050.c **** }
1014:.\MPU6050/MPU6050.c **** /** Get word pair grouping order offset for the specified slave (0-3).
1015:.\MPU6050/MPU6050.c ****  * This sets specifies the grouping order of word pairs received from registers.
1016:.\MPU6050/MPU6050.c ****  * When cleared to 0, bytes from register addresses 0 and 1, 2 and 3, etc (even,
1017:.\MPU6050/MPU6050.c ****  * then odd register addresses) are paired to form a word. When set to 1, bytes
1018:.\MPU6050/MPU6050.c ****  * from register addresses are paired 1 and 2, 3 and 4, etc. (odd, then even
1019:.\MPU6050/MPU6050.c ****  * register addresses) are paired to form a word.
1020:.\MPU6050/MPU6050.c ****  *
1021:.\MPU6050/MPU6050.c ****  * @param num Slave number (0-3)
1022:.\MPU6050/MPU6050.c ****  * @return Current word pair grouping order offset for specified slave
1023:.\MPU6050/MPU6050.c ****  * @see MPU6050_RA_I2C_SLV0_CTRL
1024:.\MPU6050/MPU6050.c ****  */
1025:.\MPU6050/MPU6050.c **** bool MPU6050_getSlaveWordGroupOffset(uint8_t num) {
 2649              		.loc 1 1025 0
 2650              		.cfi_startproc
 2651              		@ args = 0, pretend = 0, frame = 0
 2652              		@ frame_needed = 0, uses_anonymous_args = 0
 2653              	.LVL167:
1026:.\MPU6050/MPU6050.c ****     if (num > 3) return 0;
 2654              		.loc 1 1026 0
 2655 0000 0328     		cmp	r0, #3
 2656 0002 11D8     		bhi	.L303
1025:.\MPU6050/MPU6050.c ****     if (num > 3) return 0;
 2657              		.loc 1 1025 0
 2658 0004 10B5     		push	{r4, lr}
 2659              		.cfi_def_cfa_offset 8
 2660              		.cfi_offset 4, -8
 2661              		.cfi_offset 14, -4
1027:.\MPU6050/MPU6050.c ****     I2Cdev_readBit(mpu6050.devAddr, MPU6050_RA_I2C_SLV0_CTRL + num*3, MPU6050_I2C_SLV_GRP_BIT, mpu6
 2662              		.loc 1 1027 0
ARM GAS  C:\Users\satomin\AppData\Local\Temp\ccS6UKJQ.s 			page 66


 2663 0006 094C     		ldr	r4, .L306
 2664 0008 2346     		mov	r3, r4
 2665 000a 00EB4000 		add	r0, r0, r0, lsl #1
 2666              	.LVL168:
 2667 000e 00F12701 		add	r1, r0, #39
 2668 0012 13F8010B 		ldrb	r0, [r3], #1	@ zero_extendqisi2
 2669 0016 C9B2     		uxtb	r1, r1
 2670 0018 0422     		movs	r2, #4
 2671 001a FFF7FEFF 		bl	I2Cdev_readBit
 2672              	.LVL169:
1028:.\MPU6050/MPU6050.c ****     return mpu6050.buffer[0];
 2673              		.loc 1 1028 0
 2674 001e 6078     		ldrb	r0, [r4, #1]	@ zero_extendqisi2
 2675 0020 0030     		adds	r0, r0, #0
 2676 0022 18BF     		it	ne
 2677 0024 0120     		movne	r0, #1
 2678 0026 10BD     		pop	{r4, pc}
 2679              	.LVL170:
 2680              	.L303:
 2681              		.cfi_def_cfa_offset 0
 2682              		.cfi_restore 4
 2683              		.cfi_restore 14
1026:.\MPU6050/MPU6050.c ****     I2Cdev_readBit(mpu6050.devAddr, MPU6050_RA_I2C_SLV0_CTRL + num*3, MPU6050_I2C_SLV_GRP_BIT, mpu6
 2684              		.loc 1 1026 0
 2685 0028 0020     		movs	r0, #0
 2686              	.LVL171:
 2687 002a 7047     		bx	lr
 2688              	.L307:
 2689              		.align	2
 2690              	.L306:
 2691 002c 00000000 		.word	mpu6050
 2692              		.cfi_endproc
 2693              	.LFE134:
 2694              		.size	MPU6050_getSlaveWordGroupOffset, .-MPU6050_getSlaveWordGroupOffset
 2695              		.section	.text.MPU6050_setSlaveWordGroupOffset,"ax",%progbits
 2696              		.align	2
 2697              		.global	MPU6050_setSlaveWordGroupOffset
 2698              		.thumb
 2699              		.thumb_func
 2700              		.type	MPU6050_setSlaveWordGroupOffset, %function
 2701              	MPU6050_setSlaveWordGroupOffset:
 2702              	.LFB135:
1029:.\MPU6050/MPU6050.c **** }
1030:.\MPU6050/MPU6050.c **** /** Set word pair grouping order offset for the specified slave (0-3).
1031:.\MPU6050/MPU6050.c ****  * @param num Slave number (0-3)
1032:.\MPU6050/MPU6050.c ****  * @param enabled New word pair grouping order offset for specified slave
1033:.\MPU6050/MPU6050.c ****  * @see getSlaveWordGroupOffset()
1034:.\MPU6050/MPU6050.c ****  * @see MPU6050_RA_I2C_SLV0_CTRL
1035:.\MPU6050/MPU6050.c ****  */
1036:.\MPU6050/MPU6050.c **** void MPU6050_setSlaveWordGroupOffset(uint8_t num, bool enabled) {
 2703              		.loc 1 1036 0
 2704              		.cfi_startproc
 2705              		@ args = 0, pretend = 0, frame = 0
 2706              		@ frame_needed = 0, uses_anonymous_args = 0
 2707              	.LVL172:
1037:.\MPU6050/MPU6050.c ****     if (num > 3) return;
 2708              		.loc 1 1037 0
ARM GAS  C:\Users\satomin\AppData\Local\Temp\ccS6UKJQ.s 			page 67


 2709 0000 0328     		cmp	r0, #3
 2710 0002 0CD8     		bhi	.L311
1036:.\MPU6050/MPU6050.c ****     if (num > 3) return;
 2711              		.loc 1 1036 0
 2712 0004 08B5     		push	{r3, lr}
 2713              		.cfi_def_cfa_offset 8
 2714              		.cfi_offset 3, -8
 2715              		.cfi_offset 14, -4
 2716 0006 0B46     		mov	r3, r1
1038:.\MPU6050/MPU6050.c ****     I2Cdev_writeBit(mpu6050.devAddr, MPU6050_RA_I2C_SLV0_CTRL + num*3, MPU6050_I2C_SLV_GRP_BIT, ena
 2717              		.loc 1 1038 0
 2718 0008 00EB4000 		add	r0, r0, r0, lsl #1
 2719              	.LVL173:
 2720 000c 00F12702 		add	r2, r0, #39
 2721 0010 0349     		ldr	r1, .L312
 2722              	.LVL174:
 2723 0012 0878     		ldrb	r0, [r1]	@ zero_extendqisi2
 2724 0014 D1B2     		uxtb	r1, r2
 2725 0016 0422     		movs	r2, #4
 2726 0018 FFF7FEFF 		bl	I2Cdev_writeBit
 2727              	.LVL175:
 2728 001c 08BD     		pop	{r3, pc}
 2729              	.LVL176:
 2730              	.L311:
 2731              		.cfi_def_cfa_offset 0
 2732              		.cfi_restore 3
 2733              		.cfi_restore 14
 2734 001e 7047     		bx	lr
 2735              	.L313:
 2736              		.align	2
 2737              	.L312:
 2738 0020 00000000 		.word	mpu6050
 2739              		.cfi_endproc
 2740              	.LFE135:
 2741              		.size	MPU6050_setSlaveWordGroupOffset, .-MPU6050_setSlaveWordGroupOffset
 2742              		.section	.text.MPU6050_getSlaveDataLength,"ax",%progbits
 2743              		.align	2
 2744              		.global	MPU6050_getSlaveDataLength
 2745              		.thumb
 2746              		.thumb_func
 2747              		.type	MPU6050_getSlaveDataLength, %function
 2748              	MPU6050_getSlaveDataLength:
 2749              	.LFB136:
1039:.\MPU6050/MPU6050.c **** }
1040:.\MPU6050/MPU6050.c **** /** Get number of bytes to read for the specified slave (0-3).
1041:.\MPU6050/MPU6050.c ****  * Specifies the number of bytes transferred to and from Slave 0. Clearing this
1042:.\MPU6050/MPU6050.c ****  * bit to 0 is equivalent to disabling the register by writing 0 to I2C_SLV0_EN.
1043:.\MPU6050/MPU6050.c ****  * @param num Slave number (0-3)
1044:.\MPU6050/MPU6050.c ****  * @return Number of bytes to read for specified slave
1045:.\MPU6050/MPU6050.c ****  * @see MPU6050_RA_I2C_SLV0_CTRL
1046:.\MPU6050/MPU6050.c ****  */
1047:.\MPU6050/MPU6050.c **** uint8_t MPU6050_getSlaveDataLength(uint8_t num) {
 2750              		.loc 1 1047 0
 2751              		.cfi_startproc
 2752              		@ args = 0, pretend = 0, frame = 0
 2753              		@ frame_needed = 0, uses_anonymous_args = 0
 2754              	.LVL177:
ARM GAS  C:\Users\satomin\AppData\Local\Temp\ccS6UKJQ.s 			page 68


1048:.\MPU6050/MPU6050.c ****     if (num > 3) return 0;
 2755              		.loc 1 1048 0
 2756 0000 0328     		cmp	r0, #3
 2757 0002 11D8     		bhi	.L316
1047:.\MPU6050/MPU6050.c ****     if (num > 3) return 0;
 2758              		.loc 1 1047 0
 2759 0004 10B5     		push	{r4, lr}
 2760              		.cfi_def_cfa_offset 8
 2761              		.cfi_offset 4, -8
 2762              		.cfi_offset 14, -4
 2763 0006 82B0     		sub	sp, sp, #8
 2764              		.cfi_def_cfa_offset 16
 2765 0008 0146     		mov	r1, r0
1049:.\MPU6050/MPU6050.c ****     I2Cdev_readBits(mpu6050.devAddr, MPU6050_RA_I2C_SLV0_CTRL + num*3, MPU6050_I2C_SLV_LEN_BIT, MPU
 2766              		.loc 1 1049 0
 2767 000a 094C     		ldr	r4, .L319
 2768 000c 2346     		mov	r3, r4
 2769 000e 13F8010B 		ldrb	r0, [r3], #1	@ zero_extendqisi2
 2770              	.LVL178:
 2771 0012 01EB4101 		add	r1, r1, r1, lsl #1
 2772 0016 2731     		adds	r1, r1, #39
 2773 0018 0093     		str	r3, [sp]
 2774 001a C9B2     		uxtb	r1, r1
 2775 001c 0322     		movs	r2, #3
 2776 001e 0423     		movs	r3, #4
 2777 0020 FFF7FEFF 		bl	I2Cdev_readBits
 2778              	.LVL179:
1050:.\MPU6050/MPU6050.c ****     return mpu6050.buffer[0];
 2779              		.loc 1 1050 0
 2780 0024 6078     		ldrb	r0, [r4, #1]	@ zero_extendqisi2
 2781 0026 01E0     		b	.L315
 2782              	.LVL180:
 2783              	.L316:
 2784              		.cfi_def_cfa_offset 0
 2785              		.cfi_restore 4
 2786              		.cfi_restore 14
1048:.\MPU6050/MPU6050.c ****     I2Cdev_readBits(mpu6050.devAddr, MPU6050_RA_I2C_SLV0_CTRL + num*3, MPU6050_I2C_SLV_LEN_BIT, MPU
 2787              		.loc 1 1048 0
 2788 0028 0020     		movs	r0, #0
 2789              	.LVL181:
 2790 002a 7047     		bx	lr
 2791              	.L315:
 2792              		.cfi_def_cfa_offset 16
 2793              		.cfi_offset 4, -8
 2794              		.cfi_offset 14, -4
1051:.\MPU6050/MPU6050.c **** }
 2795              		.loc 1 1051 0
 2796 002c 02B0     		add	sp, sp, #8
 2797              		.cfi_def_cfa_offset 8
 2798              		@ sp needed
 2799 002e 10BD     		pop	{r4, pc}
 2800              	.L320:
 2801              		.align	2
 2802              	.L319:
 2803 0030 00000000 		.word	mpu6050
 2804              		.cfi_endproc
 2805              	.LFE136:
ARM GAS  C:\Users\satomin\AppData\Local\Temp\ccS6UKJQ.s 			page 69


 2806              		.size	MPU6050_getSlaveDataLength, .-MPU6050_getSlaveDataLength
 2807              		.section	.text.MPU6050_setSlaveDataLength,"ax",%progbits
 2808              		.align	2
 2809              		.global	MPU6050_setSlaveDataLength
 2810              		.thumb
 2811              		.thumb_func
 2812              		.type	MPU6050_setSlaveDataLength, %function
 2813              	MPU6050_setSlaveDataLength:
 2814              	.LFB137:
1052:.\MPU6050/MPU6050.c **** /** Set number of bytes to read for the specified slave (0-3).
1053:.\MPU6050/MPU6050.c ****  * @param num Slave number (0-3)
1054:.\MPU6050/MPU6050.c ****  * @param length Number of bytes to read for specified slave
1055:.\MPU6050/MPU6050.c ****  * @see getSlaveDataLength()
1056:.\MPU6050/MPU6050.c ****  * @see MPU6050_RA_I2C_SLV0_CTRL
1057:.\MPU6050/MPU6050.c ****  */
1058:.\MPU6050/MPU6050.c **** void MPU6050_setSlaveDataLength(uint8_t num, uint8_t length) {
 2815              		.loc 1 1058 0
 2816              		.cfi_startproc
 2817              		@ args = 0, pretend = 0, frame = 0
 2818              		@ frame_needed = 0, uses_anonymous_args = 0
 2819              	.LVL182:
1059:.\MPU6050/MPU6050.c ****     if (num > 3) return;
 2820              		.loc 1 1059 0
 2821 0000 0328     		cmp	r0, #3
 2822 0002 10D8     		bhi	.L324
1058:.\MPU6050/MPU6050.c ****     if (num > 3) return;
 2823              		.loc 1 1058 0
 2824 0004 00B5     		push	{lr}
 2825              		.cfi_def_cfa_offset 4
 2826              		.cfi_offset 14, -4
 2827 0006 83B0     		sub	sp, sp, #12
 2828              		.cfi_def_cfa_offset 16
 2829 0008 0346     		mov	r3, r0
1060:.\MPU6050/MPU6050.c ****     I2Cdev_writeBits(mpu6050.devAddr, MPU6050_RA_I2C_SLV0_CTRL + num*3, MPU6050_I2C_SLV_LEN_BIT, MP
 2830              		.loc 1 1060 0
 2831 000a 074A     		ldr	r2, .L325
 2832 000c 1078     		ldrb	r0, [r2]	@ zero_extendqisi2
 2833              	.LVL183:
 2834 000e 03EB4303 		add	r3, r3, r3, lsl #1
 2835 0012 2733     		adds	r3, r3, #39
 2836 0014 0091     		str	r1, [sp]
 2837 0016 D9B2     		uxtb	r1, r3
 2838              	.LVL184:
 2839 0018 0322     		movs	r2, #3
 2840 001a 0423     		movs	r3, #4
 2841 001c FFF7FEFF 		bl	I2Cdev_writeBits
 2842              	.LVL185:
1061:.\MPU6050/MPU6050.c **** }
 2843              		.loc 1 1061 0
 2844 0020 03B0     		add	sp, sp, #12
 2845              		.cfi_def_cfa_offset 4
 2846              		@ sp needed
 2847 0022 5DF804FB 		ldr	pc, [sp], #4
 2848              	.LVL186:
 2849              	.L324:
 2850              		.cfi_def_cfa_offset 0
 2851              		.cfi_restore 14
ARM GAS  C:\Users\satomin\AppData\Local\Temp\ccS6UKJQ.s 			page 70


 2852 0026 7047     		bx	lr
 2853              	.L326:
 2854              		.align	2
 2855              	.L325:
 2856 0028 00000000 		.word	mpu6050
 2857              		.cfi_endproc
 2858              	.LFE137:
 2859              		.size	MPU6050_setSlaveDataLength, .-MPU6050_setSlaveDataLength
 2860              		.section	.text.MPU6050_getSlave4Address,"ax",%progbits
 2861              		.align	2
 2862              		.global	MPU6050_getSlave4Address
 2863              		.thumb
 2864              		.thumb_func
 2865              		.type	MPU6050_getSlave4Address, %function
 2866              	MPU6050_getSlave4Address:
 2867              	.LFB138:
1062:.\MPU6050/MPU6050.c **** 
1063:.\MPU6050/MPU6050.c **** // I2C_SLV* registers (Slave 4)
1064:.\MPU6050/MPU6050.c **** 
1065:.\MPU6050/MPU6050.c **** /** Get the I2C address of Slave 4.
1066:.\MPU6050/MPU6050.c ****  * Note that Bit 7 (MSB) controls read/write mode. If Bit 7 is set, it's a read
1067:.\MPU6050/MPU6050.c ****  * operation, and if it is cleared, then it's a write operation. The remaining
1068:.\MPU6050/MPU6050.c ****  * bits (6-0) are the 7-bit device address of the slave device.
1069:.\MPU6050/MPU6050.c ****  *
1070:.\MPU6050/MPU6050.c ****  * @return Current address for Slave 4
1071:.\MPU6050/MPU6050.c ****  * @see getSlaveAddress()
1072:.\MPU6050/MPU6050.c ****  * @see MPU6050_RA_I2C_SLV4_ADDR
1073:.\MPU6050/MPU6050.c ****  */
1074:.\MPU6050/MPU6050.c **** uint8_t MPU6050_getSlave4Address() {
 2868              		.loc 1 1074 0
 2869              		.cfi_startproc
 2870              		@ args = 0, pretend = 0, frame = 0
 2871              		@ frame_needed = 0, uses_anonymous_args = 0
 2872 0000 10B5     		push	{r4, lr}
 2873              		.cfi_def_cfa_offset 8
 2874              		.cfi_offset 4, -8
 2875              		.cfi_offset 14, -4
1075:.\MPU6050/MPU6050.c ****     I2Cdev_readByte(mpu6050.devAddr, MPU6050_RA_I2C_SLV4_ADDR, mpu6050.buffer);
 2876              		.loc 1 1075 0
 2877 0002 044C     		ldr	r4, .L329
 2878 0004 2246     		mov	r2, r4
 2879 0006 12F8010B 		ldrb	r0, [r2], #1	@ zero_extendqisi2
 2880 000a 3121     		movs	r1, #49
 2881 000c FFF7FEFF 		bl	I2Cdev_readByte
 2882              	.LVL187:
1076:.\MPU6050/MPU6050.c ****     return mpu6050.buffer[0];
1077:.\MPU6050/MPU6050.c **** }
 2883              		.loc 1 1077 0
 2884 0010 6078     		ldrb	r0, [r4, #1]	@ zero_extendqisi2
 2885 0012 10BD     		pop	{r4, pc}
 2886              	.L330:
 2887              		.align	2
 2888              	.L329:
 2889 0014 00000000 		.word	mpu6050
 2890              		.cfi_endproc
 2891              	.LFE138:
 2892              		.size	MPU6050_getSlave4Address, .-MPU6050_getSlave4Address
ARM GAS  C:\Users\satomin\AppData\Local\Temp\ccS6UKJQ.s 			page 71


 2893              		.section	.text.MPU6050_setSlave4Address,"ax",%progbits
 2894              		.align	2
 2895              		.global	MPU6050_setSlave4Address
 2896              		.thumb
 2897              		.thumb_func
 2898              		.type	MPU6050_setSlave4Address, %function
 2899              	MPU6050_setSlave4Address:
 2900              	.LFB139:
1078:.\MPU6050/MPU6050.c **** /** Set the I2C address of Slave 4.
1079:.\MPU6050/MPU6050.c ****  * @param address New address for Slave 4
1080:.\MPU6050/MPU6050.c ****  * @see getSlave4Address()
1081:.\MPU6050/MPU6050.c ****  * @see MPU6050_RA_I2C_SLV4_ADDR
1082:.\MPU6050/MPU6050.c ****  */
1083:.\MPU6050/MPU6050.c **** void MPU6050_setSlave4Address(uint8_t address) {
 2901              		.loc 1 1083 0
 2902              		.cfi_startproc
 2903              		@ args = 0, pretend = 0, frame = 0
 2904              		@ frame_needed = 0, uses_anonymous_args = 0
 2905              	.LVL188:
 2906 0000 08B5     		push	{r3, lr}
 2907              		.cfi_def_cfa_offset 8
 2908              		.cfi_offset 3, -8
 2909              		.cfi_offset 14, -4
 2910 0002 0246     		mov	r2, r0
1084:.\MPU6050/MPU6050.c ****     I2Cdev_writeByte(mpu6050.devAddr, MPU6050_RA_I2C_SLV4_ADDR, address);
 2911              		.loc 1 1084 0
 2912 0004 024B     		ldr	r3, .L333
 2913 0006 1878     		ldrb	r0, [r3]	@ zero_extendqisi2
 2914              	.LVL189:
 2915 0008 3121     		movs	r1, #49
 2916 000a FFF7FEFF 		bl	I2Cdev_writeByte
 2917              	.LVL190:
 2918 000e 08BD     		pop	{r3, pc}
 2919              	.L334:
 2920              		.align	2
 2921              	.L333:
 2922 0010 00000000 		.word	mpu6050
 2923              		.cfi_endproc
 2924              	.LFE139:
 2925              		.size	MPU6050_setSlave4Address, .-MPU6050_setSlave4Address
 2926              		.section	.text.MPU6050_getSlave4Register,"ax",%progbits
 2927              		.align	2
 2928              		.global	MPU6050_getSlave4Register
 2929              		.thumb
 2930              		.thumb_func
 2931              		.type	MPU6050_getSlave4Register, %function
 2932              	MPU6050_getSlave4Register:
 2933              	.LFB140:
1085:.\MPU6050/MPU6050.c **** }
1086:.\MPU6050/MPU6050.c **** /** Get the active internal register for the Slave 4.
1087:.\MPU6050/MPU6050.c ****  * Read/write operations for this slave will be done to whatever internal
1088:.\MPU6050/MPU6050.c ****  * register address is stored in this MPU register.
1089:.\MPU6050/MPU6050.c ****  *
1090:.\MPU6050/MPU6050.c ****  * @return Current active register for Slave 4
1091:.\MPU6050/MPU6050.c ****  * @see MPU6050_RA_I2C_SLV4_REG
1092:.\MPU6050/MPU6050.c ****  */
1093:.\MPU6050/MPU6050.c **** uint8_t MPU6050_getSlave4Register() {
ARM GAS  C:\Users\satomin\AppData\Local\Temp\ccS6UKJQ.s 			page 72


 2934              		.loc 1 1093 0
 2935              		.cfi_startproc
 2936              		@ args = 0, pretend = 0, frame = 0
 2937              		@ frame_needed = 0, uses_anonymous_args = 0
 2938 0000 10B5     		push	{r4, lr}
 2939              		.cfi_def_cfa_offset 8
 2940              		.cfi_offset 4, -8
 2941              		.cfi_offset 14, -4
1094:.\MPU6050/MPU6050.c ****     I2Cdev_readByte(mpu6050.devAddr, MPU6050_RA_I2C_SLV4_REG, mpu6050.buffer);
 2942              		.loc 1 1094 0
 2943 0002 044C     		ldr	r4, .L337
 2944 0004 2246     		mov	r2, r4
 2945 0006 12F8010B 		ldrb	r0, [r2], #1	@ zero_extendqisi2
 2946 000a 3221     		movs	r1, #50
 2947 000c FFF7FEFF 		bl	I2Cdev_readByte
 2948              	.LVL191:
1095:.\MPU6050/MPU6050.c ****     return mpu6050.buffer[0];
1096:.\MPU6050/MPU6050.c **** }
 2949              		.loc 1 1096 0
 2950 0010 6078     		ldrb	r0, [r4, #1]	@ zero_extendqisi2
 2951 0012 10BD     		pop	{r4, pc}
 2952              	.L338:
 2953              		.align	2
 2954              	.L337:
 2955 0014 00000000 		.word	mpu6050
 2956              		.cfi_endproc
 2957              	.LFE140:
 2958              		.size	MPU6050_getSlave4Register, .-MPU6050_getSlave4Register
 2959              		.section	.text.MPU6050_setSlave4Register,"ax",%progbits
 2960              		.align	2
 2961              		.global	MPU6050_setSlave4Register
 2962              		.thumb
 2963              		.thumb_func
 2964              		.type	MPU6050_setSlave4Register, %function
 2965              	MPU6050_setSlave4Register:
 2966              	.LFB141:
1097:.\MPU6050/MPU6050.c **** /** Set the active internal register for Slave 4.
1098:.\MPU6050/MPU6050.c ****  * @param reg New active register for Slave 4
1099:.\MPU6050/MPU6050.c ****  * @see getSlave4Register()
1100:.\MPU6050/MPU6050.c ****  * @see MPU6050_RA_I2C_SLV4_REG
1101:.\MPU6050/MPU6050.c ****  */
1102:.\MPU6050/MPU6050.c **** void MPU6050_setSlave4Register(uint8_t reg) {
 2967              		.loc 1 1102 0
 2968              		.cfi_startproc
 2969              		@ args = 0, pretend = 0, frame = 0
 2970              		@ frame_needed = 0, uses_anonymous_args = 0
 2971              	.LVL192:
 2972 0000 08B5     		push	{r3, lr}
 2973              		.cfi_def_cfa_offset 8
 2974              		.cfi_offset 3, -8
 2975              		.cfi_offset 14, -4
 2976 0002 0246     		mov	r2, r0
1103:.\MPU6050/MPU6050.c ****     I2Cdev_writeByte(mpu6050.devAddr, MPU6050_RA_I2C_SLV4_REG, reg);
 2977              		.loc 1 1103 0
 2978 0004 024B     		ldr	r3, .L341
 2979 0006 1878     		ldrb	r0, [r3]	@ zero_extendqisi2
 2980              	.LVL193:
ARM GAS  C:\Users\satomin\AppData\Local\Temp\ccS6UKJQ.s 			page 73


 2981 0008 3221     		movs	r1, #50
 2982 000a FFF7FEFF 		bl	I2Cdev_writeByte
 2983              	.LVL194:
 2984 000e 08BD     		pop	{r3, pc}
 2985              	.L342:
 2986              		.align	2
 2987              	.L341:
 2988 0010 00000000 		.word	mpu6050
 2989              		.cfi_endproc
 2990              	.LFE141:
 2991              		.size	MPU6050_setSlave4Register, .-MPU6050_setSlave4Register
 2992              		.section	.text.MPU6050_setSlave4OutputByte,"ax",%progbits
 2993              		.align	2
 2994              		.global	MPU6050_setSlave4OutputByte
 2995              		.thumb
 2996              		.thumb_func
 2997              		.type	MPU6050_setSlave4OutputByte, %function
 2998              	MPU6050_setSlave4OutputByte:
 2999              	.LFB142:
1104:.\MPU6050/MPU6050.c **** }
1105:.\MPU6050/MPU6050.c **** /** Set new byte to write to Slave 4.
1106:.\MPU6050/MPU6050.c ****  * This register stores the data to be written into the Slave 4. If I2C_SLV4_RW
1107:.\MPU6050/MPU6050.c ****  * is set 1 (set to read), this register has no effect.
1108:.\MPU6050/MPU6050.c ****  * @param data New byte to write to Slave 4
1109:.\MPU6050/MPU6050.c ****  * @see MPU6050_RA_I2C_SLV4_DO
1110:.\MPU6050/MPU6050.c ****  */
1111:.\MPU6050/MPU6050.c **** void MPU6050_setSlave4OutputByte(uint8_t data) {
 3000              		.loc 1 1111 0
 3001              		.cfi_startproc
 3002              		@ args = 0, pretend = 0, frame = 0
 3003              		@ frame_needed = 0, uses_anonymous_args = 0
 3004              	.LVL195:
 3005 0000 08B5     		push	{r3, lr}
 3006              		.cfi_def_cfa_offset 8
 3007              		.cfi_offset 3, -8
 3008              		.cfi_offset 14, -4
 3009 0002 0246     		mov	r2, r0
1112:.\MPU6050/MPU6050.c ****     I2Cdev_writeByte(mpu6050.devAddr, MPU6050_RA_I2C_SLV4_DO, data);
 3010              		.loc 1 1112 0
 3011 0004 024B     		ldr	r3, .L345
 3012 0006 1878     		ldrb	r0, [r3]	@ zero_extendqisi2
 3013              	.LVL196:
 3014 0008 3321     		movs	r1, #51
 3015 000a FFF7FEFF 		bl	I2Cdev_writeByte
 3016              	.LVL197:
 3017 000e 08BD     		pop	{r3, pc}
 3018              	.L346:
 3019              		.align	2
 3020              	.L345:
 3021 0010 00000000 		.word	mpu6050
 3022              		.cfi_endproc
 3023              	.LFE142:
 3024              		.size	MPU6050_setSlave4OutputByte, .-MPU6050_setSlave4OutputByte
 3025              		.section	.text.MPU6050_getSlave4Enabled,"ax",%progbits
 3026              		.align	2
 3027              		.global	MPU6050_getSlave4Enabled
 3028              		.thumb
ARM GAS  C:\Users\satomin\AppData\Local\Temp\ccS6UKJQ.s 			page 74


 3029              		.thumb_func
 3030              		.type	MPU6050_getSlave4Enabled, %function
 3031              	MPU6050_getSlave4Enabled:
 3032              	.LFB143:
1113:.\MPU6050/MPU6050.c **** }
1114:.\MPU6050/MPU6050.c **** /** Get the enabled value for the Slave 4.
1115:.\MPU6050/MPU6050.c ****  * When set to 1, this bit enables Slave 4 for data transfer operations. When
1116:.\MPU6050/MPU6050.c ****  * cleared to 0, this bit disables Slave 4 from data transfer operations.
1117:.\MPU6050/MPU6050.c ****  * @return Current enabled value for Slave 4
1118:.\MPU6050/MPU6050.c ****  * @see MPU6050_RA_I2C_SLV4_CTRL
1119:.\MPU6050/MPU6050.c ****  */
1120:.\MPU6050/MPU6050.c **** bool MPU6050_getSlave4Enabled() {
 3033              		.loc 1 1120 0
 3034              		.cfi_startproc
 3035              		@ args = 0, pretend = 0, frame = 0
 3036              		@ frame_needed = 0, uses_anonymous_args = 0
 3037 0000 10B5     		push	{r4, lr}
 3038              		.cfi_def_cfa_offset 8
 3039              		.cfi_offset 4, -8
 3040              		.cfi_offset 14, -4
1121:.\MPU6050/MPU6050.c ****     I2Cdev_readBit(mpu6050.devAddr, MPU6050_RA_I2C_SLV4_CTRL, MPU6050_I2C_SLV4_EN_BIT, mpu6050.buff
 3041              		.loc 1 1121 0
 3042 0002 064C     		ldr	r4, .L349
 3043 0004 2346     		mov	r3, r4
 3044 0006 13F8010B 		ldrb	r0, [r3], #1	@ zero_extendqisi2
 3045 000a 3421     		movs	r1, #52
 3046 000c 0722     		movs	r2, #7
 3047 000e FFF7FEFF 		bl	I2Cdev_readBit
 3048              	.LVL198:
1122:.\MPU6050/MPU6050.c ****     return mpu6050.buffer[0];
 3049              		.loc 1 1122 0
 3050 0012 6078     		ldrb	r0, [r4, #1]	@ zero_extendqisi2
1123:.\MPU6050/MPU6050.c **** }
 3051              		.loc 1 1123 0
 3052 0014 0030     		adds	r0, r0, #0
 3053 0016 18BF     		it	ne
 3054 0018 0120     		movne	r0, #1
 3055 001a 10BD     		pop	{r4, pc}
 3056              	.L350:
 3057              		.align	2
 3058              	.L349:
 3059 001c 00000000 		.word	mpu6050
 3060              		.cfi_endproc
 3061              	.LFE143:
 3062              		.size	MPU6050_getSlave4Enabled, .-MPU6050_getSlave4Enabled
 3063              		.section	.text.MPU6050_setSlave4Enabled,"ax",%progbits
 3064              		.align	2
 3065              		.global	MPU6050_setSlave4Enabled
 3066              		.thumb
 3067              		.thumb_func
 3068              		.type	MPU6050_setSlave4Enabled, %function
 3069              	MPU6050_setSlave4Enabled:
 3070              	.LFB144:
1124:.\MPU6050/MPU6050.c **** /** Set the enabled value for Slave 4.
1125:.\MPU6050/MPU6050.c ****  * @param enabled New enabled value for Slave 4
1126:.\MPU6050/MPU6050.c ****  * @see getSlave4Enabled()
1127:.\MPU6050/MPU6050.c ****  * @see MPU6050_RA_I2C_SLV4_CTRL
ARM GAS  C:\Users\satomin\AppData\Local\Temp\ccS6UKJQ.s 			page 75


1128:.\MPU6050/MPU6050.c ****  */
1129:.\MPU6050/MPU6050.c **** void MPU6050_setSlave4Enabled(bool enabled) {
 3071              		.loc 1 1129 0
 3072              		.cfi_startproc
 3073              		@ args = 0, pretend = 0, frame = 0
 3074              		@ frame_needed = 0, uses_anonymous_args = 0
 3075              	.LVL199:
 3076 0000 08B5     		push	{r3, lr}
 3077              		.cfi_def_cfa_offset 8
 3078              		.cfi_offset 3, -8
 3079              		.cfi_offset 14, -4
 3080 0002 0346     		mov	r3, r0
1130:.\MPU6050/MPU6050.c ****     I2Cdev_writeBit(mpu6050.devAddr, MPU6050_RA_I2C_SLV4_CTRL, MPU6050_I2C_SLV4_EN_BIT, enabled);
 3081              		.loc 1 1130 0
 3082 0004 034A     		ldr	r2, .L353
 3083 0006 1078     		ldrb	r0, [r2]	@ zero_extendqisi2
 3084              	.LVL200:
 3085 0008 3421     		movs	r1, #52
 3086 000a 0722     		movs	r2, #7
 3087 000c FFF7FEFF 		bl	I2Cdev_writeBit
 3088              	.LVL201:
 3089 0010 08BD     		pop	{r3, pc}
 3090              	.L354:
 3091 0012 00BF     		.align	2
 3092              	.L353:
 3093 0014 00000000 		.word	mpu6050
 3094              		.cfi_endproc
 3095              	.LFE144:
 3096              		.size	MPU6050_setSlave4Enabled, .-MPU6050_setSlave4Enabled
 3097              		.section	.text.MPU6050_getSlave4InterruptEnabled,"ax",%progbits
 3098              		.align	2
 3099              		.global	MPU6050_getSlave4InterruptEnabled
 3100              		.thumb
 3101              		.thumb_func
 3102              		.type	MPU6050_getSlave4InterruptEnabled, %function
 3103              	MPU6050_getSlave4InterruptEnabled:
 3104              	.LFB145:
1131:.\MPU6050/MPU6050.c **** }
1132:.\MPU6050/MPU6050.c **** /** Get the enabled value for Slave 4 transaction interrupts.
1133:.\MPU6050/MPU6050.c ****  * When set to 1, this bit enables the generation of an interrupt signal upon
1134:.\MPU6050/MPU6050.c ****  * completion of a Slave 4 transaction. When cleared to 0, this bit disables the
1135:.\MPU6050/MPU6050.c ****  * generation of an interrupt signal upon completion of a Slave 4 transaction.
1136:.\MPU6050/MPU6050.c ****  * The interrupt status can be observed in Register 54.
1137:.\MPU6050/MPU6050.c ****  *
1138:.\MPU6050/MPU6050.c ****  * @return Current enabled value for Slave 4 transaction interrupts.
1139:.\MPU6050/MPU6050.c ****  * @see MPU6050_RA_I2C_SLV4_CTRL
1140:.\MPU6050/MPU6050.c ****  */
1141:.\MPU6050/MPU6050.c **** bool MPU6050_getSlave4InterruptEnabled() {
 3105              		.loc 1 1141 0
 3106              		.cfi_startproc
 3107              		@ args = 0, pretend = 0, frame = 0
 3108              		@ frame_needed = 0, uses_anonymous_args = 0
 3109 0000 10B5     		push	{r4, lr}
 3110              		.cfi_def_cfa_offset 8
 3111              		.cfi_offset 4, -8
 3112              		.cfi_offset 14, -4
1142:.\MPU6050/MPU6050.c ****     I2Cdev_readBit(mpu6050.devAddr, MPU6050_RA_I2C_SLV4_CTRL, MPU6050_I2C_SLV4_INT_EN_BIT, mpu6050.
ARM GAS  C:\Users\satomin\AppData\Local\Temp\ccS6UKJQ.s 			page 76


 3113              		.loc 1 1142 0
 3114 0002 064C     		ldr	r4, .L357
 3115 0004 2346     		mov	r3, r4
 3116 0006 13F8010B 		ldrb	r0, [r3], #1	@ zero_extendqisi2
 3117 000a 3421     		movs	r1, #52
 3118 000c 0622     		movs	r2, #6
 3119 000e FFF7FEFF 		bl	I2Cdev_readBit
 3120              	.LVL202:
1143:.\MPU6050/MPU6050.c ****     return mpu6050.buffer[0];
 3121              		.loc 1 1143 0
 3122 0012 6078     		ldrb	r0, [r4, #1]	@ zero_extendqisi2
1144:.\MPU6050/MPU6050.c **** }
 3123              		.loc 1 1144 0
 3124 0014 0030     		adds	r0, r0, #0
 3125 0016 18BF     		it	ne
 3126 0018 0120     		movne	r0, #1
 3127 001a 10BD     		pop	{r4, pc}
 3128              	.L358:
 3129              		.align	2
 3130              	.L357:
 3131 001c 00000000 		.word	mpu6050
 3132              		.cfi_endproc
 3133              	.LFE145:
 3134              		.size	MPU6050_getSlave4InterruptEnabled, .-MPU6050_getSlave4InterruptEnabled
 3135              		.section	.text.MPU6050_setSlave4InterruptEnabled,"ax",%progbits
 3136              		.align	2
 3137              		.global	MPU6050_setSlave4InterruptEnabled
 3138              		.thumb
 3139              		.thumb_func
 3140              		.type	MPU6050_setSlave4InterruptEnabled, %function
 3141              	MPU6050_setSlave4InterruptEnabled:
 3142              	.LFB146:
1145:.\MPU6050/MPU6050.c **** /** Set the enabled value for Slave 4 transaction interrupts.
1146:.\MPU6050/MPU6050.c ****  * @param enabled New enabled value for Slave 4 transaction interrupts.
1147:.\MPU6050/MPU6050.c ****  * @see getSlave4InterruptEnabled()
1148:.\MPU6050/MPU6050.c ****  * @see MPU6050_RA_I2C_SLV4_CTRL
1149:.\MPU6050/MPU6050.c ****  */
1150:.\MPU6050/MPU6050.c **** void MPU6050_setSlave4InterruptEnabled(bool enabled) {
 3143              		.loc 1 1150 0
 3144              		.cfi_startproc
 3145              		@ args = 0, pretend = 0, frame = 0
 3146              		@ frame_needed = 0, uses_anonymous_args = 0
 3147              	.LVL203:
 3148 0000 08B5     		push	{r3, lr}
 3149              		.cfi_def_cfa_offset 8
 3150              		.cfi_offset 3, -8
 3151              		.cfi_offset 14, -4
 3152 0002 0346     		mov	r3, r0
1151:.\MPU6050/MPU6050.c ****     I2Cdev_writeBit(mpu6050.devAddr, MPU6050_RA_I2C_SLV4_CTRL, MPU6050_I2C_SLV4_INT_EN_BIT, enabled
 3153              		.loc 1 1151 0
 3154 0004 034A     		ldr	r2, .L361
 3155 0006 1078     		ldrb	r0, [r2]	@ zero_extendqisi2
 3156              	.LVL204:
 3157 0008 3421     		movs	r1, #52
 3158 000a 0622     		movs	r2, #6
 3159 000c FFF7FEFF 		bl	I2Cdev_writeBit
 3160              	.LVL205:
ARM GAS  C:\Users\satomin\AppData\Local\Temp\ccS6UKJQ.s 			page 77


 3161 0010 08BD     		pop	{r3, pc}
 3162              	.L362:
 3163 0012 00BF     		.align	2
 3164              	.L361:
 3165 0014 00000000 		.word	mpu6050
 3166              		.cfi_endproc
 3167              	.LFE146:
 3168              		.size	MPU6050_setSlave4InterruptEnabled, .-MPU6050_setSlave4InterruptEnabled
 3169              		.section	.text.MPU6050_getSlave4WriteMode,"ax",%progbits
 3170              		.align	2
 3171              		.global	MPU6050_getSlave4WriteMode
 3172              		.thumb
 3173              		.thumb_func
 3174              		.type	MPU6050_getSlave4WriteMode, %function
 3175              	MPU6050_getSlave4WriteMode:
 3176              	.LFB147:
1152:.\MPU6050/MPU6050.c **** }
1153:.\MPU6050/MPU6050.c **** /** Get write mode for Slave 4.
1154:.\MPU6050/MPU6050.c ****  * When set to 1, the transaction will read or write data only. When cleared to
1155:.\MPU6050/MPU6050.c ****  * 0, the transaction will write a register address prior to reading or writing
1156:.\MPU6050/MPU6050.c ****  * data. This should equal 0 when specifying the register address within the
1157:.\MPU6050/MPU6050.c ****  * Slave device to/from which the ensuing data transaction will take place.
1158:.\MPU6050/MPU6050.c ****  *
1159:.\MPU6050/MPU6050.c ****  * @return Current write mode for Slave 4 (0 = register address + data, 1 = data only)
1160:.\MPU6050/MPU6050.c ****  * @see MPU6050_RA_I2C_SLV4_CTRL
1161:.\MPU6050/MPU6050.c ****  */
1162:.\MPU6050/MPU6050.c **** bool MPU6050_getSlave4WriteMode() {
 3177              		.loc 1 1162 0
 3178              		.cfi_startproc
 3179              		@ args = 0, pretend = 0, frame = 0
 3180              		@ frame_needed = 0, uses_anonymous_args = 0
 3181 0000 10B5     		push	{r4, lr}
 3182              		.cfi_def_cfa_offset 8
 3183              		.cfi_offset 4, -8
 3184              		.cfi_offset 14, -4
1163:.\MPU6050/MPU6050.c ****     I2Cdev_readBit(mpu6050.devAddr, MPU6050_RA_I2C_SLV4_CTRL, MPU6050_I2C_SLV4_REG_DIS_BIT, mpu6050
 3185              		.loc 1 1163 0
 3186 0002 064C     		ldr	r4, .L365
 3187 0004 2346     		mov	r3, r4
 3188 0006 13F8010B 		ldrb	r0, [r3], #1	@ zero_extendqisi2
 3189 000a 3421     		movs	r1, #52
 3190 000c 0522     		movs	r2, #5
 3191 000e FFF7FEFF 		bl	I2Cdev_readBit
 3192              	.LVL206:
1164:.\MPU6050/MPU6050.c ****     return mpu6050.buffer[0];
 3193              		.loc 1 1164 0
 3194 0012 6078     		ldrb	r0, [r4, #1]	@ zero_extendqisi2
1165:.\MPU6050/MPU6050.c **** }
 3195              		.loc 1 1165 0
 3196 0014 0030     		adds	r0, r0, #0
 3197 0016 18BF     		it	ne
 3198 0018 0120     		movne	r0, #1
 3199 001a 10BD     		pop	{r4, pc}
 3200              	.L366:
 3201              		.align	2
 3202              	.L365:
 3203 001c 00000000 		.word	mpu6050
ARM GAS  C:\Users\satomin\AppData\Local\Temp\ccS6UKJQ.s 			page 78


 3204              		.cfi_endproc
 3205              	.LFE147:
 3206              		.size	MPU6050_getSlave4WriteMode, .-MPU6050_getSlave4WriteMode
 3207              		.section	.text.MPU6050_setSlave4WriteMode,"ax",%progbits
 3208              		.align	2
 3209              		.global	MPU6050_setSlave4WriteMode
 3210              		.thumb
 3211              		.thumb_func
 3212              		.type	MPU6050_setSlave4WriteMode, %function
 3213              	MPU6050_setSlave4WriteMode:
 3214              	.LFB148:
1166:.\MPU6050/MPU6050.c **** /** Set write mode for the Slave 4.
1167:.\MPU6050/MPU6050.c ****  * @param mode New write mode for Slave 4 (0 = register address + data, 1 = data only)
1168:.\MPU6050/MPU6050.c ****  * @see getSlave4WriteMode()
1169:.\MPU6050/MPU6050.c ****  * @see MPU6050_RA_I2C_SLV4_CTRL
1170:.\MPU6050/MPU6050.c ****  */
1171:.\MPU6050/MPU6050.c **** void MPU6050_setSlave4WriteMode(bool mode) {
 3215              		.loc 1 1171 0
 3216              		.cfi_startproc
 3217              		@ args = 0, pretend = 0, frame = 0
 3218              		@ frame_needed = 0, uses_anonymous_args = 0
 3219              	.LVL207:
 3220 0000 08B5     		push	{r3, lr}
 3221              		.cfi_def_cfa_offset 8
 3222              		.cfi_offset 3, -8
 3223              		.cfi_offset 14, -4
 3224 0002 0346     		mov	r3, r0
1172:.\MPU6050/MPU6050.c ****     I2Cdev_writeBit(mpu6050.devAddr, MPU6050_RA_I2C_SLV4_CTRL, MPU6050_I2C_SLV4_REG_DIS_BIT, mode);
 3225              		.loc 1 1172 0
 3226 0004 034A     		ldr	r2, .L369
 3227 0006 1078     		ldrb	r0, [r2]	@ zero_extendqisi2
 3228              	.LVL208:
 3229 0008 3421     		movs	r1, #52
 3230 000a 0522     		movs	r2, #5
 3231 000c FFF7FEFF 		bl	I2Cdev_writeBit
 3232              	.LVL209:
 3233 0010 08BD     		pop	{r3, pc}
 3234              	.L370:
 3235 0012 00BF     		.align	2
 3236              	.L369:
 3237 0014 00000000 		.word	mpu6050
 3238              		.cfi_endproc
 3239              	.LFE148:
 3240              		.size	MPU6050_setSlave4WriteMode, .-MPU6050_setSlave4WriteMode
 3241              		.section	.text.MPU6050_getSlave4MasterDelay,"ax",%progbits
 3242              		.align	2
 3243              		.global	MPU6050_getSlave4MasterDelay
 3244              		.thumb
 3245              		.thumb_func
 3246              		.type	MPU6050_getSlave4MasterDelay, %function
 3247              	MPU6050_getSlave4MasterDelay:
 3248              	.LFB149:
1173:.\MPU6050/MPU6050.c **** }
1174:.\MPU6050/MPU6050.c **** /** Get Slave 4 master delay value.
1175:.\MPU6050/MPU6050.c ****  * This configures the reduced access rate of I2C slaves relative to the Sample
1176:.\MPU6050/MPU6050.c ****  * Rate. When a slave's access rate is decreased relative to the Sample Rate,
1177:.\MPU6050/MPU6050.c ****  * the slave is accessed every:
ARM GAS  C:\Users\satomin\AppData\Local\Temp\ccS6UKJQ.s 			page 79


1178:.\MPU6050/MPU6050.c ****  *
1179:.\MPU6050/MPU6050.c ****  *     1 / (1 + I2C_MST_DLY) samples
1180:.\MPU6050/MPU6050.c ****  *
1181:.\MPU6050/MPU6050.c ****  * This base Sample Rate in turn is determined by SMPLRT_DIV (register 25) and
1182:.\MPU6050/MPU6050.c ****  * DLPF_CFG (register 26). Whether a slave's access rate is reduced relative to
1183:.\MPU6050/MPU6050.c ****  * the Sample Rate is determined by I2C_MST_DELAY_CTRL (register 103). For
1184:.\MPU6050/MPU6050.c ****  * further information regarding the Sample Rate, please refer to register 25.
1185:.\MPU6050/MPU6050.c ****  *
1186:.\MPU6050/MPU6050.c ****  * @return Current Slave 4 master delay value
1187:.\MPU6050/MPU6050.c ****  * @see MPU6050_RA_I2C_SLV4_CTRL
1188:.\MPU6050/MPU6050.c ****  */
1189:.\MPU6050/MPU6050.c **** uint8_t MPU6050_getSlave4MasterDelay() {
 3249              		.loc 1 1189 0
 3250              		.cfi_startproc
 3251              		@ args = 0, pretend = 0, frame = 0
 3252              		@ frame_needed = 0, uses_anonymous_args = 0
 3253 0000 10B5     		push	{r4, lr}
 3254              		.cfi_def_cfa_offset 8
 3255              		.cfi_offset 4, -8
 3256              		.cfi_offset 14, -4
 3257 0002 82B0     		sub	sp, sp, #8
 3258              		.cfi_def_cfa_offset 16
1190:.\MPU6050/MPU6050.c ****     I2Cdev_readBits(mpu6050.devAddr, MPU6050_RA_I2C_SLV4_CTRL, MPU6050_I2C_SLV4_MST_DLY_BIT, MPU605
 3259              		.loc 1 1190 0
 3260 0004 064C     		ldr	r4, .L373
 3261 0006 2346     		mov	r3, r4
 3262 0008 13F8010B 		ldrb	r0, [r3], #1	@ zero_extendqisi2
 3263 000c 0093     		str	r3, [sp]
 3264 000e 3421     		movs	r1, #52
 3265 0010 0422     		movs	r2, #4
 3266 0012 0523     		movs	r3, #5
 3267 0014 FFF7FEFF 		bl	I2Cdev_readBits
 3268              	.LVL210:
1191:.\MPU6050/MPU6050.c ****     return mpu6050.buffer[0];
1192:.\MPU6050/MPU6050.c **** }
 3269              		.loc 1 1192 0
 3270 0018 6078     		ldrb	r0, [r4, #1]	@ zero_extendqisi2
 3271 001a 02B0     		add	sp, sp, #8
 3272              		.cfi_def_cfa_offset 8
 3273              		@ sp needed
 3274 001c 10BD     		pop	{r4, pc}
 3275              	.L374:
 3276 001e 00BF     		.align	2
 3277              	.L373:
 3278 0020 00000000 		.word	mpu6050
 3279              		.cfi_endproc
 3280              	.LFE149:
 3281              		.size	MPU6050_getSlave4MasterDelay, .-MPU6050_getSlave4MasterDelay
 3282              		.section	.text.MPU6050_setSlave4MasterDelay,"ax",%progbits
 3283              		.align	2
 3284              		.global	MPU6050_setSlave4MasterDelay
 3285              		.thumb
 3286              		.thumb_func
 3287              		.type	MPU6050_setSlave4MasterDelay, %function
 3288              	MPU6050_setSlave4MasterDelay:
 3289              	.LFB150:
1193:.\MPU6050/MPU6050.c **** /** Set Slave 4 master delay value.
ARM GAS  C:\Users\satomin\AppData\Local\Temp\ccS6UKJQ.s 			page 80


1194:.\MPU6050/MPU6050.c ****  * @param delay New Slave 4 master delay value
1195:.\MPU6050/MPU6050.c ****  * @see getSlave4MasterDelay()
1196:.\MPU6050/MPU6050.c ****  * @see MPU6050_RA_I2C_SLV4_CTRL
1197:.\MPU6050/MPU6050.c ****  */
1198:.\MPU6050/MPU6050.c **** void MPU6050_setSlave4MasterDelay(uint8_t delay) {
 3290              		.loc 1 1198 0
 3291              		.cfi_startproc
 3292              		@ args = 0, pretend = 0, frame = 0
 3293              		@ frame_needed = 0, uses_anonymous_args = 0
 3294              	.LVL211:
 3295 0000 00B5     		push	{lr}
 3296              		.cfi_def_cfa_offset 4
 3297              		.cfi_offset 14, -4
 3298 0002 83B0     		sub	sp, sp, #12
 3299              		.cfi_def_cfa_offset 16
1199:.\MPU6050/MPU6050.c ****     I2Cdev_writeBits(mpu6050.devAddr, MPU6050_RA_I2C_SLV4_CTRL, MPU6050_I2C_SLV4_MST_DLY_BIT, MPU60
 3300              		.loc 1 1199 0
 3301 0004 054B     		ldr	r3, .L377
 3302 0006 1B78     		ldrb	r3, [r3]	@ zero_extendqisi2
 3303 0008 0090     		str	r0, [sp]
 3304 000a 1846     		mov	r0, r3
 3305              	.LVL212:
 3306 000c 3421     		movs	r1, #52
 3307 000e 0422     		movs	r2, #4
 3308 0010 0523     		movs	r3, #5
 3309 0012 FFF7FEFF 		bl	I2Cdev_writeBits
 3310              	.LVL213:
1200:.\MPU6050/MPU6050.c **** }
 3311              		.loc 1 1200 0
 3312 0016 03B0     		add	sp, sp, #12
 3313              		.cfi_def_cfa_offset 4
 3314              		@ sp needed
 3315 0018 5DF804FB 		ldr	pc, [sp], #4
 3316              	.L378:
 3317              		.align	2
 3318              	.L377:
 3319 001c 00000000 		.word	mpu6050
 3320              		.cfi_endproc
 3321              	.LFE150:
 3322              		.size	MPU6050_setSlave4MasterDelay, .-MPU6050_setSlave4MasterDelay
 3323              		.section	.text.MPU6050_getSlate4InputByte,"ax",%progbits
 3324              		.align	2
 3325              		.global	MPU6050_getSlate4InputByte
 3326              		.thumb
 3327              		.thumb_func
 3328              		.type	MPU6050_getSlate4InputByte, %function
 3329              	MPU6050_getSlate4InputByte:
 3330              	.LFB151:
1201:.\MPU6050/MPU6050.c **** /** Get last available byte read from Slave 4.
1202:.\MPU6050/MPU6050.c ****  * This register stores the data read from Slave 4. This field is populated
1203:.\MPU6050/MPU6050.c ****  * after a read transaction.
1204:.\MPU6050/MPU6050.c ****  * @return Last available byte read from to Slave 4
1205:.\MPU6050/MPU6050.c ****  * @see MPU6050_RA_I2C_SLV4_DI
1206:.\MPU6050/MPU6050.c ****  */
1207:.\MPU6050/MPU6050.c **** uint8_t MPU6050_getSlate4InputByte() {
 3331              		.loc 1 1207 0
 3332              		.cfi_startproc
ARM GAS  C:\Users\satomin\AppData\Local\Temp\ccS6UKJQ.s 			page 81


 3333              		@ args = 0, pretend = 0, frame = 0
 3334              		@ frame_needed = 0, uses_anonymous_args = 0
 3335 0000 10B5     		push	{r4, lr}
 3336              		.cfi_def_cfa_offset 8
 3337              		.cfi_offset 4, -8
 3338              		.cfi_offset 14, -4
1208:.\MPU6050/MPU6050.c ****     I2Cdev_readByte(mpu6050.devAddr, MPU6050_RA_I2C_SLV4_DI, mpu6050.buffer);
 3339              		.loc 1 1208 0
 3340 0002 044C     		ldr	r4, .L381
 3341 0004 2246     		mov	r2, r4
 3342 0006 12F8010B 		ldrb	r0, [r2], #1	@ zero_extendqisi2
 3343 000a 3521     		movs	r1, #53
 3344 000c FFF7FEFF 		bl	I2Cdev_readByte
 3345              	.LVL214:
1209:.\MPU6050/MPU6050.c ****     return mpu6050.buffer[0];
1210:.\MPU6050/MPU6050.c **** }
 3346              		.loc 1 1210 0
 3347 0010 6078     		ldrb	r0, [r4, #1]	@ zero_extendqisi2
 3348 0012 10BD     		pop	{r4, pc}
 3349              	.L382:
 3350              		.align	2
 3351              	.L381:
 3352 0014 00000000 		.word	mpu6050
 3353              		.cfi_endproc
 3354              	.LFE151:
 3355              		.size	MPU6050_getSlate4InputByte, .-MPU6050_getSlate4InputByte
 3356              		.section	.text.MPU6050_getPassthroughStatus,"ax",%progbits
 3357              		.align	2
 3358              		.global	MPU6050_getPassthroughStatus
 3359              		.thumb
 3360              		.thumb_func
 3361              		.type	MPU6050_getPassthroughStatus, %function
 3362              	MPU6050_getPassthroughStatus:
 3363              	.LFB152:
1211:.\MPU6050/MPU6050.c **** 
1212:.\MPU6050/MPU6050.c **** // I2C_MST_STATUS register
1213:.\MPU6050/MPU6050.c **** 
1214:.\MPU6050/MPU6050.c **** /** Get FSYNC interrupt status.
1215:.\MPU6050/MPU6050.c ****  * This bit reflects the status of the FSYNC interrupt from an external device
1216:.\MPU6050/MPU6050.c ****  * into the MPU-60X0. This is used as a way to pass an external interrupt
1217:.\MPU6050/MPU6050.c ****  * through the MPU-60X0 to the host application processor. When set to 1, this
1218:.\MPU6050/MPU6050.c ****  * bit will cause an interrupt if FSYNC_INT_EN is asserted in INT_PIN_CFG
1219:.\MPU6050/MPU6050.c ****  * (Register 55).
1220:.\MPU6050/MPU6050.c ****  * @return FSYNC interrupt status
1221:.\MPU6050/MPU6050.c ****  * @see MPU6050_RA_I2C_MST_STATUS
1222:.\MPU6050/MPU6050.c ****  */
1223:.\MPU6050/MPU6050.c **** bool MPU6050_getPassthroughStatus() {
 3364              		.loc 1 1223 0
 3365              		.cfi_startproc
 3366              		@ args = 0, pretend = 0, frame = 0
 3367              		@ frame_needed = 0, uses_anonymous_args = 0
 3368 0000 10B5     		push	{r4, lr}
 3369              		.cfi_def_cfa_offset 8
 3370              		.cfi_offset 4, -8
 3371              		.cfi_offset 14, -4
1224:.\MPU6050/MPU6050.c ****     I2Cdev_readBit(mpu6050.devAddr, MPU6050_RA_I2C_MST_STATUS, MPU6050_MST_PASS_THROUGH_BIT, mpu605
 3372              		.loc 1 1224 0
ARM GAS  C:\Users\satomin\AppData\Local\Temp\ccS6UKJQ.s 			page 82


 3373 0002 064C     		ldr	r4, .L385
 3374 0004 2346     		mov	r3, r4
 3375 0006 13F8010B 		ldrb	r0, [r3], #1	@ zero_extendqisi2
 3376 000a 3621     		movs	r1, #54
 3377 000c 0722     		movs	r2, #7
 3378 000e FFF7FEFF 		bl	I2Cdev_readBit
 3379              	.LVL215:
1225:.\MPU6050/MPU6050.c ****     return mpu6050.buffer[0];
 3380              		.loc 1 1225 0
 3381 0012 6078     		ldrb	r0, [r4, #1]	@ zero_extendqisi2
1226:.\MPU6050/MPU6050.c **** }
 3382              		.loc 1 1226 0
 3383 0014 0030     		adds	r0, r0, #0
 3384 0016 18BF     		it	ne
 3385 0018 0120     		movne	r0, #1
 3386 001a 10BD     		pop	{r4, pc}
 3387              	.L386:
 3388              		.align	2
 3389              	.L385:
 3390 001c 00000000 		.word	mpu6050
 3391              		.cfi_endproc
 3392              	.LFE152:
 3393              		.size	MPU6050_getPassthroughStatus, .-MPU6050_getPassthroughStatus
 3394              		.section	.text.MPU6050_getSlave4IsDone,"ax",%progbits
 3395              		.align	2
 3396              		.global	MPU6050_getSlave4IsDone
 3397              		.thumb
 3398              		.thumb_func
 3399              		.type	MPU6050_getSlave4IsDone, %function
 3400              	MPU6050_getSlave4IsDone:
 3401              	.LFB153:
1227:.\MPU6050/MPU6050.c **** /** Get Slave 4 transaction done status.
1228:.\MPU6050/MPU6050.c ****  * Automatically sets to 1 when a Slave 4 transaction has completed. This
1229:.\MPU6050/MPU6050.c ****  * triggers an interrupt if the I2C_MST_INT_EN bit in the INT_ENABLE register
1230:.\MPU6050/MPU6050.c ****  * (Register 56) is asserted and if the SLV_4_DONE_INT bit is asserted in the
1231:.\MPU6050/MPU6050.c ****  * I2C_SLV4_CTRL register (Register 52).
1232:.\MPU6050/MPU6050.c ****  * @return Slave 4 transaction done status
1233:.\MPU6050/MPU6050.c ****  * @see MPU6050_RA_I2C_MST_STATUS
1234:.\MPU6050/MPU6050.c ****  */
1235:.\MPU6050/MPU6050.c **** bool MPU6050_getSlave4IsDone() {
 3402              		.loc 1 1235 0
 3403              		.cfi_startproc
 3404              		@ args = 0, pretend = 0, frame = 0
 3405              		@ frame_needed = 0, uses_anonymous_args = 0
 3406 0000 10B5     		push	{r4, lr}
 3407              		.cfi_def_cfa_offset 8
 3408              		.cfi_offset 4, -8
 3409              		.cfi_offset 14, -4
1236:.\MPU6050/MPU6050.c ****     I2Cdev_readBit(mpu6050.devAddr, MPU6050_RA_I2C_MST_STATUS, MPU6050_MST_I2C_SLV4_DONE_BIT, mpu60
 3410              		.loc 1 1236 0
 3411 0002 064C     		ldr	r4, .L389
 3412 0004 2346     		mov	r3, r4
 3413 0006 13F8010B 		ldrb	r0, [r3], #1	@ zero_extendqisi2
 3414 000a 3621     		movs	r1, #54
 3415 000c 0622     		movs	r2, #6
 3416 000e FFF7FEFF 		bl	I2Cdev_readBit
 3417              	.LVL216:
ARM GAS  C:\Users\satomin\AppData\Local\Temp\ccS6UKJQ.s 			page 83


1237:.\MPU6050/MPU6050.c ****     return mpu6050.buffer[0];
 3418              		.loc 1 1237 0
 3419 0012 6078     		ldrb	r0, [r4, #1]	@ zero_extendqisi2
1238:.\MPU6050/MPU6050.c **** }
 3420              		.loc 1 1238 0
 3421 0014 0030     		adds	r0, r0, #0
 3422 0016 18BF     		it	ne
 3423 0018 0120     		movne	r0, #1
 3424 001a 10BD     		pop	{r4, pc}
 3425              	.L390:
 3426              		.align	2
 3427              	.L389:
 3428 001c 00000000 		.word	mpu6050
 3429              		.cfi_endproc
 3430              	.LFE153:
 3431              		.size	MPU6050_getSlave4IsDone, .-MPU6050_getSlave4IsDone
 3432              		.section	.text.MPU6050_getLostArbitration,"ax",%progbits
 3433              		.align	2
 3434              		.global	MPU6050_getLostArbitration
 3435              		.thumb
 3436              		.thumb_func
 3437              		.type	MPU6050_getLostArbitration, %function
 3438              	MPU6050_getLostArbitration:
 3439              	.LFB154:
1239:.\MPU6050/MPU6050.c **** /** Get master arbitration lost status.
1240:.\MPU6050/MPU6050.c ****  * This bit automatically sets to 1 when the I2C Master has lost arbitration of
1241:.\MPU6050/MPU6050.c ****  * the auxiliary I2C bus (an error condition). This triggers an interrupt if the
1242:.\MPU6050/MPU6050.c ****  * I2C_MST_INT_EN bit in the INT_ENABLE register (Register 56) is asserted.
1243:.\MPU6050/MPU6050.c ****  * @return Master arbitration lost status
1244:.\MPU6050/MPU6050.c ****  * @see MPU6050_RA_I2C_MST_STATUS
1245:.\MPU6050/MPU6050.c ****  */
1246:.\MPU6050/MPU6050.c **** bool MPU6050_getLostArbitration() {
 3440              		.loc 1 1246 0
 3441              		.cfi_startproc
 3442              		@ args = 0, pretend = 0, frame = 0
 3443              		@ frame_needed = 0, uses_anonymous_args = 0
 3444 0000 10B5     		push	{r4, lr}
 3445              		.cfi_def_cfa_offset 8
 3446              		.cfi_offset 4, -8
 3447              		.cfi_offset 14, -4
1247:.\MPU6050/MPU6050.c ****     I2Cdev_readBit(mpu6050.devAddr, MPU6050_RA_I2C_MST_STATUS, MPU6050_MST_I2C_LOST_ARB_BIT, mpu605
 3448              		.loc 1 1247 0
 3449 0002 064C     		ldr	r4, .L393
 3450 0004 2346     		mov	r3, r4
 3451 0006 13F8010B 		ldrb	r0, [r3], #1	@ zero_extendqisi2
 3452 000a 3621     		movs	r1, #54
 3453 000c 0522     		movs	r2, #5
 3454 000e FFF7FEFF 		bl	I2Cdev_readBit
 3455              	.LVL217:
1248:.\MPU6050/MPU6050.c ****     return mpu6050.buffer[0];
 3456              		.loc 1 1248 0
 3457 0012 6078     		ldrb	r0, [r4, #1]	@ zero_extendqisi2
1249:.\MPU6050/MPU6050.c **** }
 3458              		.loc 1 1249 0
 3459 0014 0030     		adds	r0, r0, #0
 3460 0016 18BF     		it	ne
 3461 0018 0120     		movne	r0, #1
ARM GAS  C:\Users\satomin\AppData\Local\Temp\ccS6UKJQ.s 			page 84


 3462 001a 10BD     		pop	{r4, pc}
 3463              	.L394:
 3464              		.align	2
 3465              	.L393:
 3466 001c 00000000 		.word	mpu6050
 3467              		.cfi_endproc
 3468              	.LFE154:
 3469              		.size	MPU6050_getLostArbitration, .-MPU6050_getLostArbitration
 3470              		.section	.text.MPU6050_getSlave4Nack,"ax",%progbits
 3471              		.align	2
 3472              		.global	MPU6050_getSlave4Nack
 3473              		.thumb
 3474              		.thumb_func
 3475              		.type	MPU6050_getSlave4Nack, %function
 3476              	MPU6050_getSlave4Nack:
 3477              	.LFB155:
1250:.\MPU6050/MPU6050.c **** /** Get Slave 4 NACK status.
1251:.\MPU6050/MPU6050.c ****  * This bit automatically sets to 1 when the I2C Master receives a NACK in a
1252:.\MPU6050/MPU6050.c ****  * transaction with Slave 4. This triggers an interrupt if the I2C_MST_INT_EN
1253:.\MPU6050/MPU6050.c ****  * bit in the INT_ENABLE register (Register 56) is asserted.
1254:.\MPU6050/MPU6050.c ****  * @return Slave 4 NACK interrupt status
1255:.\MPU6050/MPU6050.c ****  * @see MPU6050_RA_I2C_MST_STATUS
1256:.\MPU6050/MPU6050.c ****  */
1257:.\MPU6050/MPU6050.c **** bool MPU6050_getSlave4Nack() {
 3478              		.loc 1 1257 0
 3479              		.cfi_startproc
 3480              		@ args = 0, pretend = 0, frame = 0
 3481              		@ frame_needed = 0, uses_anonymous_args = 0
 3482 0000 10B5     		push	{r4, lr}
 3483              		.cfi_def_cfa_offset 8
 3484              		.cfi_offset 4, -8
 3485              		.cfi_offset 14, -4
1258:.\MPU6050/MPU6050.c ****     I2Cdev_readBit(mpu6050.devAddr, MPU6050_RA_I2C_MST_STATUS, MPU6050_MST_I2C_SLV4_NACK_BIT, mpu60
 3486              		.loc 1 1258 0
 3487 0002 064C     		ldr	r4, .L397
 3488 0004 2346     		mov	r3, r4
 3489 0006 13F8010B 		ldrb	r0, [r3], #1	@ zero_extendqisi2
 3490 000a 3621     		movs	r1, #54
 3491 000c 0422     		movs	r2, #4
 3492 000e FFF7FEFF 		bl	I2Cdev_readBit
 3493              	.LVL218:
1259:.\MPU6050/MPU6050.c ****     return mpu6050.buffer[0];
 3494              		.loc 1 1259 0
 3495 0012 6078     		ldrb	r0, [r4, #1]	@ zero_extendqisi2
1260:.\MPU6050/MPU6050.c **** }
 3496              		.loc 1 1260 0
 3497 0014 0030     		adds	r0, r0, #0
 3498 0016 18BF     		it	ne
 3499 0018 0120     		movne	r0, #1
 3500 001a 10BD     		pop	{r4, pc}
 3501              	.L398:
 3502              		.align	2
 3503              	.L397:
 3504 001c 00000000 		.word	mpu6050
 3505              		.cfi_endproc
 3506              	.LFE155:
 3507              		.size	MPU6050_getSlave4Nack, .-MPU6050_getSlave4Nack
ARM GAS  C:\Users\satomin\AppData\Local\Temp\ccS6UKJQ.s 			page 85


 3508              		.section	.text.MPU6050_getSlave3Nack,"ax",%progbits
 3509              		.align	2
 3510              		.global	MPU6050_getSlave3Nack
 3511              		.thumb
 3512              		.thumb_func
 3513              		.type	MPU6050_getSlave3Nack, %function
 3514              	MPU6050_getSlave3Nack:
 3515              	.LFB156:
1261:.\MPU6050/MPU6050.c **** /** Get Slave 3 NACK status.
1262:.\MPU6050/MPU6050.c ****  * This bit automatically sets to 1 when the I2C Master receives a NACK in a
1263:.\MPU6050/MPU6050.c ****  * transaction with Slave 3. This triggers an interrupt if the I2C_MST_INT_EN
1264:.\MPU6050/MPU6050.c ****  * bit in the INT_ENABLE register (Register 56) is asserted.
1265:.\MPU6050/MPU6050.c ****  * @return Slave 3 NACK interrupt status
1266:.\MPU6050/MPU6050.c ****  * @see MPU6050_RA_I2C_MST_STATUS
1267:.\MPU6050/MPU6050.c ****  */
1268:.\MPU6050/MPU6050.c **** bool MPU6050_getSlave3Nack() {
 3516              		.loc 1 1268 0
 3517              		.cfi_startproc
 3518              		@ args = 0, pretend = 0, frame = 0
 3519              		@ frame_needed = 0, uses_anonymous_args = 0
 3520 0000 10B5     		push	{r4, lr}
 3521              		.cfi_def_cfa_offset 8
 3522              		.cfi_offset 4, -8
 3523              		.cfi_offset 14, -4
1269:.\MPU6050/MPU6050.c ****     I2Cdev_readBit(mpu6050.devAddr, MPU6050_RA_I2C_MST_STATUS, MPU6050_MST_I2C_SLV3_NACK_BIT, mpu60
 3524              		.loc 1 1269 0
 3525 0002 064C     		ldr	r4, .L401
 3526 0004 2346     		mov	r3, r4
 3527 0006 13F8010B 		ldrb	r0, [r3], #1	@ zero_extendqisi2
 3528 000a 3621     		movs	r1, #54
 3529 000c 0322     		movs	r2, #3
 3530 000e FFF7FEFF 		bl	I2Cdev_readBit
 3531              	.LVL219:
1270:.\MPU6050/MPU6050.c ****     return mpu6050.buffer[0];
 3532              		.loc 1 1270 0
 3533 0012 6078     		ldrb	r0, [r4, #1]	@ zero_extendqisi2
1271:.\MPU6050/MPU6050.c **** }
 3534              		.loc 1 1271 0
 3535 0014 0030     		adds	r0, r0, #0
 3536 0016 18BF     		it	ne
 3537 0018 0120     		movne	r0, #1
 3538 001a 10BD     		pop	{r4, pc}
 3539              	.L402:
 3540              		.align	2
 3541              	.L401:
 3542 001c 00000000 		.word	mpu6050
 3543              		.cfi_endproc
 3544              	.LFE156:
 3545              		.size	MPU6050_getSlave3Nack, .-MPU6050_getSlave3Nack
 3546              		.section	.text.MPU6050_getSlave2Nack,"ax",%progbits
 3547              		.align	2
 3548              		.global	MPU6050_getSlave2Nack
 3549              		.thumb
 3550              		.thumb_func
 3551              		.type	MPU6050_getSlave2Nack, %function
 3552              	MPU6050_getSlave2Nack:
 3553              	.LFB157:
ARM GAS  C:\Users\satomin\AppData\Local\Temp\ccS6UKJQ.s 			page 86


1272:.\MPU6050/MPU6050.c **** /** Get Slave 2 NACK status.
1273:.\MPU6050/MPU6050.c ****  * This bit automatically sets to 1 when the I2C Master receives a NACK in a
1274:.\MPU6050/MPU6050.c ****  * transaction with Slave 2. This triggers an interrupt if the I2C_MST_INT_EN
1275:.\MPU6050/MPU6050.c ****  * bit in the INT_ENABLE register (Register 56) is asserted.
1276:.\MPU6050/MPU6050.c ****  * @return Slave 2 NACK interrupt status
1277:.\MPU6050/MPU6050.c ****  * @see MPU6050_RA_I2C_MST_STATUS
1278:.\MPU6050/MPU6050.c ****  */
1279:.\MPU6050/MPU6050.c **** bool MPU6050_getSlave2Nack() {
 3554              		.loc 1 1279 0
 3555              		.cfi_startproc
 3556              		@ args = 0, pretend = 0, frame = 0
 3557              		@ frame_needed = 0, uses_anonymous_args = 0
 3558 0000 10B5     		push	{r4, lr}
 3559              		.cfi_def_cfa_offset 8
 3560              		.cfi_offset 4, -8
 3561              		.cfi_offset 14, -4
1280:.\MPU6050/MPU6050.c ****     I2Cdev_readBit(mpu6050.devAddr, MPU6050_RA_I2C_MST_STATUS, MPU6050_MST_I2C_SLV2_NACK_BIT, mpu60
 3562              		.loc 1 1280 0
 3563 0002 064C     		ldr	r4, .L405
 3564 0004 2346     		mov	r3, r4
 3565 0006 13F8010B 		ldrb	r0, [r3], #1	@ zero_extendqisi2
 3566 000a 3621     		movs	r1, #54
 3567 000c 0222     		movs	r2, #2
 3568 000e FFF7FEFF 		bl	I2Cdev_readBit
 3569              	.LVL220:
1281:.\MPU6050/MPU6050.c ****     return mpu6050.buffer[0];
 3570              		.loc 1 1281 0
 3571 0012 6078     		ldrb	r0, [r4, #1]	@ zero_extendqisi2
1282:.\MPU6050/MPU6050.c **** }
 3572              		.loc 1 1282 0
 3573 0014 0030     		adds	r0, r0, #0
 3574 0016 18BF     		it	ne
 3575 0018 0120     		movne	r0, #1
 3576 001a 10BD     		pop	{r4, pc}
 3577              	.L406:
 3578              		.align	2
 3579              	.L405:
 3580 001c 00000000 		.word	mpu6050
 3581              		.cfi_endproc
 3582              	.LFE157:
 3583              		.size	MPU6050_getSlave2Nack, .-MPU6050_getSlave2Nack
 3584              		.section	.text.MPU6050_getSlave1Nack,"ax",%progbits
 3585              		.align	2
 3586              		.global	MPU6050_getSlave1Nack
 3587              		.thumb
 3588              		.thumb_func
 3589              		.type	MPU6050_getSlave1Nack, %function
 3590              	MPU6050_getSlave1Nack:
 3591              	.LFB158:
1283:.\MPU6050/MPU6050.c **** /** Get Slave 1 NACK status.
1284:.\MPU6050/MPU6050.c ****  * This bit automatically sets to 1 when the I2C Master receives a NACK in a
1285:.\MPU6050/MPU6050.c ****  * transaction with Slave 1. This triggers an interrupt if the I2C_MST_INT_EN
1286:.\MPU6050/MPU6050.c ****  * bit in the INT_ENABLE register (Register 56) is asserted.
1287:.\MPU6050/MPU6050.c ****  * @return Slave 1 NACK interrupt status
1288:.\MPU6050/MPU6050.c ****  * @see MPU6050_RA_I2C_MST_STATUS
1289:.\MPU6050/MPU6050.c ****  */
1290:.\MPU6050/MPU6050.c **** bool MPU6050_getSlave1Nack() {
ARM GAS  C:\Users\satomin\AppData\Local\Temp\ccS6UKJQ.s 			page 87


 3592              		.loc 1 1290 0
 3593              		.cfi_startproc
 3594              		@ args = 0, pretend = 0, frame = 0
 3595              		@ frame_needed = 0, uses_anonymous_args = 0
 3596 0000 10B5     		push	{r4, lr}
 3597              		.cfi_def_cfa_offset 8
